
CG2271_Project.elf:     file format elf32-avr

Sections:
Idx Name          Size      VMA       LMA       File off  Algn
  0 .data         00000022  00800100  000012b8  0000134c  2**0
                  CONTENTS, ALLOC, LOAD, DATA
  1 .text         000012b8  00000000  00000000  00000094  2**1
                  CONTENTS, ALLOC, LOAD, READONLY, CODE
  2 .bss          000004f6  00800122  00800122  0000136e  2**0
                  ALLOC
  3 .comment      00000011  00000000  00000000  0000136e  2**0
                  CONTENTS, READONLY
  4 .note.gnu.avr.deviceinfo 00000040  00000000  00000000  00001380  2**2
                  CONTENTS, READONLY
  5 .debug_aranges 000000a0  00000000  00000000  000013c0  2**3
                  CONTENTS, READONLY, DEBUGGING
  6 .debug_info   0000099b  00000000  00000000  00001460  2**0
                  CONTENTS, READONLY, DEBUGGING
  7 .debug_abbrev 00000606  00000000  00000000  00001dfb  2**0
                  CONTENTS, READONLY, DEBUGGING
  8 .debug_line   000002a6  00000000  00000000  00002401  2**0
                  CONTENTS, READONLY, DEBUGGING
  9 .debug_str    00000208  00000000  00000000  000026a7  2**0
                  CONTENTS, READONLY, DEBUGGING

Disassembly of section .text:

00000000 <__vectors>:
       0:	5d c0       	rjmp	.+186    	; 0xbc <__ctors_end>
       2:	00 00       	nop
       4:	a2 c2       	rjmp	.+1348   	; 0x54a <__vector_1>
       6:	00 00       	nop
       8:	c7 c2       	rjmp	.+1422   	; 0x598 <__vector_2>
       a:	00 00       	nop
       c:	7e c0       	rjmp	.+252    	; 0x10a <__bad_interrupt>
       e:	00 00       	nop
      10:	7c c0       	rjmp	.+248    	; 0x10a <__bad_interrupt>
      12:	00 00       	nop
      14:	7a c0       	rjmp	.+244    	; 0x10a <__bad_interrupt>
      16:	00 00       	nop
      18:	78 c0       	rjmp	.+240    	; 0x10a <__bad_interrupt>
      1a:	00 00       	nop
      1c:	3a c2       	rjmp	.+1140   	; 0x492 <__vector_7>
      1e:	00 00       	nop
      20:	74 c0       	rjmp	.+232    	; 0x10a <__bad_interrupt>
      22:	00 00       	nop
      24:	72 c0       	rjmp	.+228    	; 0x10a <__bad_interrupt>
      26:	00 00       	nop
      28:	70 c0       	rjmp	.+224    	; 0x10a <__bad_interrupt>
      2a:	00 00       	nop
      2c:	88 c5       	rjmp	.+2832   	; 0xb3e <__vector_11>
      2e:	00 00       	nop
      30:	6c c0       	rjmp	.+216    	; 0x10a <__bad_interrupt>
      32:	00 00       	nop
      34:	6a c0       	rjmp	.+212    	; 0x10a <__bad_interrupt>
      36:	00 00       	nop
      38:	68 c0       	rjmp	.+208    	; 0x10a <__bad_interrupt>
      3a:	00 00       	nop
      3c:	66 c0       	rjmp	.+204    	; 0x10a <__bad_interrupt>
      3e:	00 00       	nop
      40:	dd c2       	rjmp	.+1466   	; 0x5fc <__vector_16>
      42:	00 00       	nop
      44:	62 c0       	rjmp	.+196    	; 0x10a <__bad_interrupt>
      46:	00 00       	nop
      48:	3a c1       	rjmp	.+628    	; 0x2be <__vector_18>
      4a:	00 00       	nop
      4c:	6a c1       	rjmp	.+724    	; 0x322 <__vector_19>
      4e:	00 00       	nop
      50:	5c c0       	rjmp	.+184    	; 0x10a <__bad_interrupt>
      52:	00 00       	nop
      54:	5a c0       	rjmp	.+180    	; 0x10a <__bad_interrupt>
      56:	00 00       	nop
      58:	58 c0       	rjmp	.+176    	; 0x10a <__bad_interrupt>
      5a:	00 00       	nop
      5c:	56 c0       	rjmp	.+172    	; 0x10a <__bad_interrupt>
      5e:	00 00       	nop
      60:	54 c0       	rjmp	.+168    	; 0x10a <__bad_interrupt>
      62:	00 00       	nop
      64:	52 c0       	rjmp	.+164    	; 0x10a <__bad_interrupt>
	...

00000068 <__trampolines_end>:
      68:	02 00       	Address 0x00000068 is out of bounds.
.word	0xffff	; ????

00000069 <digital_pin_to_timer_PGM>:
      69:	00 00 00 08 00 02 01 00 00 03 04 07 00 00 00 00     ................
      79:	00 00 00 00                                         ....

0000007d <digital_pin_to_bit_mask_PGM>:
      7d:	01 02 04 08 10 20 40 80 01 02 04 08 10 20 01 02     ..... @...... ..
      8d:	04 08 10 20                                         ... 

00000091 <digital_pin_to_port_PGM>:
      91:	04 04 04 04 04 04 04 04 02 02 02 02 02 02 03 03     ................
      a1:	03 03 03 03                                         ....

000000a5 <port_to_output_PGM>:
      a5:	00 00 00 00 25 00 28 00 2b 00                       ....%.(.+.

000000af <port_to_mode_PGM>:
      af:	00 00 00 00 24 00 27 00 2a 00 00                    ....$.'.*..

000000ba <__ctors_start>:
      ba:	bf 01       	movw	r22, r30

000000bc <__ctors_end>:
      bc:	11 24       	eor	r1, r1
      be:	1f be       	out	0x3f, r1	; 63
      c0:	cf ef       	ldi	r28, 0xFF	; 255
      c2:	d8 e0       	ldi	r29, 0x08	; 8
      c4:	de bf       	out	0x3e, r29	; 62
      c6:	cd bf       	out	0x3d, r28	; 61

000000c8 <__do_copy_data>:
      c8:	11 e0       	ldi	r17, 0x01	; 1
      ca:	a0 e0       	ldi	r26, 0x00	; 0
      cc:	b1 e0       	ldi	r27, 0x01	; 1
      ce:	e8 eb       	ldi	r30, 0xB8	; 184
      d0:	f2 e1       	ldi	r31, 0x12	; 18
      d2:	02 c0       	rjmp	.+4      	; 0xd8 <__do_copy_data+0x10>
      d4:	05 90       	lpm	r0, Z+
      d6:	0d 92       	st	X+, r0
      d8:	a2 32       	cpi	r26, 0x22	; 34
      da:	b1 07       	cpc	r27, r17
      dc:	d9 f7       	brne	.-10     	; 0xd4 <__do_copy_data+0xc>

000000de <__do_clear_bss>:
      de:	26 e0       	ldi	r18, 0x06	; 6
      e0:	a2 e2       	ldi	r26, 0x22	; 34
      e2:	b1 e0       	ldi	r27, 0x01	; 1
      e4:	01 c0       	rjmp	.+2      	; 0xe8 <.do_clear_bss_start>

000000e6 <.do_clear_bss_loop>:
      e6:	1d 92       	st	X+, r1

000000e8 <.do_clear_bss_start>:
      e8:	a8 31       	cpi	r26, 0x18	; 24
      ea:	b2 07       	cpc	r27, r18
      ec:	e1 f7       	brne	.-8      	; 0xe6 <.do_clear_bss_loop>

000000ee <__do_global_ctors>:
      ee:	10 e0       	ldi	r17, 0x00	; 0
      f0:	ce e5       	ldi	r28, 0x5E	; 94
      f2:	d0 e0       	ldi	r29, 0x00	; 0
      f4:	04 c0       	rjmp	.+8      	; 0xfe <__do_global_ctors+0x10>
      f6:	21 97       	sbiw	r28, 0x01	; 1
      f8:	fe 01       	movw	r30, r28
      fa:	0e 94 54 09 	call	0x12a8	; 0x12a8 <__tablejump2__>
      fe:	cd 35       	cpi	r28, 0x5D	; 93
     100:	d1 07       	cpc	r29, r17
     102:	c9 f7       	brne	.-14     	; 0xf6 <__do_global_ctors+0x8>
     104:	71 d2       	rcall	.+1250   	; 0x5e8 <main>
     106:	0c 94 5a 09 	jmp	0x12b4	; 0x12b4 <_exit>

0000010a <__bad_interrupt>:
     10a:	7a cf       	rjmp	.-268    	; 0x0 <__vectors>

0000010c <_ZN14HardwareSerial9availableEv>:
     10c:	fc 01       	movw	r30, r24
     10e:	91 8d       	ldd	r25, Z+25	; 0x19
     110:	22 8d       	ldd	r18, Z+26	; 0x1a
     112:	89 2f       	mov	r24, r25
     114:	90 e0       	ldi	r25, 0x00	; 0
     116:	80 5c       	subi	r24, 0xC0	; 192
     118:	9f 4f       	sbci	r25, 0xFF	; 255
     11a:	82 1b       	sub	r24, r18
     11c:	91 09       	sbc	r25, r1
     11e:	8f 73       	andi	r24, 0x3F	; 63
     120:	99 27       	eor	r25, r25
     122:	08 95       	ret

00000124 <_ZN14HardwareSerial4peekEv>:
     124:	fc 01       	movw	r30, r24
     126:	91 8d       	ldd	r25, Z+25	; 0x19
     128:	82 8d       	ldd	r24, Z+26	; 0x1a
     12a:	98 17       	cp	r25, r24
     12c:	31 f0       	breq	.+12     	; 0x13a <_ZN14HardwareSerial4peekEv+0x16>
     12e:	82 8d       	ldd	r24, Z+26	; 0x1a
     130:	e8 0f       	add	r30, r24
     132:	f1 1d       	adc	r31, r1
     134:	85 8d       	ldd	r24, Z+29	; 0x1d
     136:	90 e0       	ldi	r25, 0x00	; 0
     138:	08 95       	ret
     13a:	8f ef       	ldi	r24, 0xFF	; 255
     13c:	9f ef       	ldi	r25, 0xFF	; 255
     13e:	08 95       	ret

00000140 <_ZN14HardwareSerial4readEv>:
     140:	fc 01       	movw	r30, r24
     142:	91 8d       	ldd	r25, Z+25	; 0x19
     144:	82 8d       	ldd	r24, Z+26	; 0x1a
     146:	98 17       	cp	r25, r24
     148:	61 f0       	breq	.+24     	; 0x162 <_ZN14HardwareSerial4readEv+0x22>
     14a:	82 8d       	ldd	r24, Z+26	; 0x1a
     14c:	df 01       	movw	r26, r30
     14e:	a8 0f       	add	r26, r24
     150:	b1 1d       	adc	r27, r1
     152:	5d 96       	adiw	r26, 0x1d	; 29
     154:	8c 91       	ld	r24, X
     156:	92 8d       	ldd	r25, Z+26	; 0x1a
     158:	9f 5f       	subi	r25, 0xFF	; 255
     15a:	9f 73       	andi	r25, 0x3F	; 63
     15c:	92 8f       	std	Z+26, r25	; 0x1a
     15e:	90 e0       	ldi	r25, 0x00	; 0
     160:	08 95       	ret
     162:	8f ef       	ldi	r24, 0xFF	; 255
     164:	9f ef       	ldi	r25, 0xFF	; 255
     166:	08 95       	ret

00000168 <_ZN14HardwareSerial17availableForWriteEv>:
     168:	fc 01       	movw	r30, r24
     16a:	53 8d       	ldd	r21, Z+27	; 0x1b
     16c:	44 8d       	ldd	r20, Z+28	; 0x1c
     16e:	25 2f       	mov	r18, r21
     170:	30 e0       	ldi	r19, 0x00	; 0
     172:	84 2f       	mov	r24, r20
     174:	90 e0       	ldi	r25, 0x00	; 0
     176:	82 1b       	sub	r24, r18
     178:	93 0b       	sbc	r25, r19
     17a:	54 17       	cp	r21, r20
     17c:	10 f0       	brcs	.+4      	; 0x182 <_ZN14HardwareSerial17availableForWriteEv+0x1a>
     17e:	cf 96       	adiw	r24, 0x3f	; 63
     180:	08 95       	ret
     182:	01 97       	sbiw	r24, 0x01	; 1
     184:	08 95       	ret

00000186 <_Z14serialEventRunv>:
     186:	86 eb       	ldi	r24, 0xB6	; 182
     188:	91 e0       	ldi	r25, 0x01	; 1
     18a:	89 2b       	or	r24, r25
     18c:	41 f0       	breq	.+16     	; 0x19e <_Z14serialEventRunv+0x18>
     18e:	80 e0       	ldi	r24, 0x00	; 0
     190:	90 e0       	ldi	r25, 0x00	; 0
     192:	89 2b       	or	r24, r25
     194:	21 f0       	breq	.+8      	; 0x19e <_Z14serialEventRunv+0x18>
     196:	ea d0       	rcall	.+468    	; 0x36c <_Z17Serial0_availablev>
     198:	81 11       	cpse	r24, r1
     19a:	0c 94 00 00 	jmp	0	; 0x0 <__vectors>
     19e:	08 95       	ret

000001a0 <_ZN14HardwareSerial17_tx_udr_empty_irqEv>:
     1a0:	fc 01       	movw	r30, r24
     1a2:	84 8d       	ldd	r24, Z+28	; 0x1c
     1a4:	df 01       	movw	r26, r30
     1a6:	a8 0f       	add	r26, r24
     1a8:	b1 1d       	adc	r27, r1
     1aa:	a3 5a       	subi	r26, 0xA3	; 163
     1ac:	bf 4f       	sbci	r27, 0xFF	; 255
     1ae:	2c 91       	ld	r18, X
     1b0:	84 8d       	ldd	r24, Z+28	; 0x1c
     1b2:	90 e0       	ldi	r25, 0x00	; 0
     1b4:	01 96       	adiw	r24, 0x01	; 1
     1b6:	8f 73       	andi	r24, 0x3F	; 63
     1b8:	99 27       	eor	r25, r25
     1ba:	84 8f       	std	Z+28, r24	; 0x1c
     1bc:	a6 89       	ldd	r26, Z+22	; 0x16
     1be:	b7 89       	ldd	r27, Z+23	; 0x17
     1c0:	2c 93       	st	X, r18
     1c2:	a0 89       	ldd	r26, Z+16	; 0x10
     1c4:	b1 89       	ldd	r27, Z+17	; 0x11
     1c6:	8c 91       	ld	r24, X
     1c8:	83 70       	andi	r24, 0x03	; 3
     1ca:	80 64       	ori	r24, 0x40	; 64
     1cc:	8c 93       	st	X, r24
     1ce:	93 8d       	ldd	r25, Z+27	; 0x1b
     1d0:	84 8d       	ldd	r24, Z+28	; 0x1c
     1d2:	98 13       	cpse	r25, r24
     1d4:	06 c0       	rjmp	.+12     	; 0x1e2 <_ZN14HardwareSerial17_tx_udr_empty_irqEv+0x42>
     1d6:	02 88       	ldd	r0, Z+18	; 0x12
     1d8:	f3 89       	ldd	r31, Z+19	; 0x13
     1da:	e0 2d       	mov	r30, r0
     1dc:	80 81       	ld	r24, Z
     1de:	8f 7d       	andi	r24, 0xDF	; 223
     1e0:	80 83       	st	Z, r24
     1e2:	08 95       	ret

000001e4 <_ZN14HardwareSerial5writeEh>:
     1e4:	ef 92       	push	r14
     1e6:	ff 92       	push	r15
     1e8:	0f 93       	push	r16
     1ea:	1f 93       	push	r17
     1ec:	cf 93       	push	r28
     1ee:	df 93       	push	r29
     1f0:	ec 01       	movw	r28, r24
     1f2:	81 e0       	ldi	r24, 0x01	; 1
     1f4:	88 8f       	std	Y+24, r24	; 0x18
     1f6:	9b 8d       	ldd	r25, Y+27	; 0x1b
     1f8:	8c 8d       	ldd	r24, Y+28	; 0x1c
     1fa:	98 13       	cpse	r25, r24
     1fc:	05 c0       	rjmp	.+10     	; 0x208 <_ZN14HardwareSerial5writeEh+0x24>
     1fe:	e8 89       	ldd	r30, Y+16	; 0x10
     200:	f9 89       	ldd	r31, Y+17	; 0x11
     202:	80 81       	ld	r24, Z
     204:	85 fd       	sbrc	r24, 5
     206:	25 c0       	rjmp	.+74     	; 0x252 <_ZN14HardwareSerial5writeEh+0x6e>
     208:	f6 2e       	mov	r15, r22
     20a:	0b 8d       	ldd	r16, Y+27	; 0x1b
     20c:	10 e0       	ldi	r17, 0x00	; 0
     20e:	0f 5f       	subi	r16, 0xFF	; 255
     210:	1f 4f       	sbci	r17, 0xFF	; 255
     212:	0f 73       	andi	r16, 0x3F	; 63
     214:	11 27       	eor	r17, r17
     216:	e0 2e       	mov	r14, r16
     218:	8c 8d       	ldd	r24, Y+28	; 0x1c
     21a:	e8 12       	cpse	r14, r24
     21c:	0b c0       	rjmp	.+22     	; 0x234 <_ZN14HardwareSerial5writeEh+0x50>
     21e:	0f b6       	in	r0, 0x3f	; 63
     220:	07 fc       	sbrc	r0, 7
     222:	fa cf       	rjmp	.-12     	; 0x218 <_ZN14HardwareSerial5writeEh+0x34>
     224:	e8 89       	ldd	r30, Y+16	; 0x10
     226:	f9 89       	ldd	r31, Y+17	; 0x11
     228:	80 81       	ld	r24, Z
     22a:	85 ff       	sbrs	r24, 5
     22c:	f5 cf       	rjmp	.-22     	; 0x218 <_ZN14HardwareSerial5writeEh+0x34>
     22e:	ce 01       	movw	r24, r28
     230:	b7 df       	rcall	.-146    	; 0x1a0 <_ZN14HardwareSerial17_tx_udr_empty_irqEv>
     232:	f2 cf       	rjmp	.-28     	; 0x218 <_ZN14HardwareSerial5writeEh+0x34>
     234:	8b 8d       	ldd	r24, Y+27	; 0x1b
     236:	fe 01       	movw	r30, r28
     238:	e8 0f       	add	r30, r24
     23a:	f1 1d       	adc	r31, r1
     23c:	e3 5a       	subi	r30, 0xA3	; 163
     23e:	ff 4f       	sbci	r31, 0xFF	; 255
     240:	f0 82       	st	Z, r15
     242:	9f b7       	in	r25, 0x3f	; 63
     244:	f8 94       	cli
     246:	0b 8f       	std	Y+27, r16	; 0x1b
     248:	ea 89       	ldd	r30, Y+18	; 0x12
     24a:	fb 89       	ldd	r31, Y+19	; 0x13
     24c:	80 81       	ld	r24, Z
     24e:	80 62       	ori	r24, 0x20	; 32
     250:	0a c0       	rjmp	.+20     	; 0x266 <_ZN14HardwareSerial5writeEh+0x82>
     252:	9f b7       	in	r25, 0x3f	; 63
     254:	f8 94       	cli
     256:	ee 89       	ldd	r30, Y+22	; 0x16
     258:	ff 89       	ldd	r31, Y+23	; 0x17
     25a:	60 83       	st	Z, r22
     25c:	e8 89       	ldd	r30, Y+16	; 0x10
     25e:	f9 89       	ldd	r31, Y+17	; 0x11
     260:	80 81       	ld	r24, Z
     262:	83 70       	andi	r24, 0x03	; 3
     264:	80 64       	ori	r24, 0x40	; 64
     266:	80 83       	st	Z, r24
     268:	9f bf       	out	0x3f, r25	; 63
     26a:	81 e0       	ldi	r24, 0x01	; 1
     26c:	90 e0       	ldi	r25, 0x00	; 0
     26e:	df 91       	pop	r29
     270:	cf 91       	pop	r28
     272:	1f 91       	pop	r17
     274:	0f 91       	pop	r16
     276:	ff 90       	pop	r15
     278:	ef 90       	pop	r14
     27a:	08 95       	ret

0000027c <_ZN14HardwareSerial5flushEv>:
     27c:	cf 93       	push	r28
     27e:	df 93       	push	r29
     280:	ec 01       	movw	r28, r24
     282:	88 8d       	ldd	r24, Y+24	; 0x18
     284:	88 23       	and	r24, r24
     286:	c1 f0       	breq	.+48     	; 0x2b8 <_ZN14HardwareSerial5flushEv+0x3c>
     288:	ea 89       	ldd	r30, Y+18	; 0x12
     28a:	fb 89       	ldd	r31, Y+19	; 0x13
     28c:	80 81       	ld	r24, Z
     28e:	85 fd       	sbrc	r24, 5
     290:	05 c0       	rjmp	.+10     	; 0x29c <_ZN14HardwareSerial5flushEv+0x20>
     292:	a8 89       	ldd	r26, Y+16	; 0x10
     294:	b9 89       	ldd	r27, Y+17	; 0x11
     296:	8c 91       	ld	r24, X
     298:	86 fd       	sbrc	r24, 6
     29a:	0e c0       	rjmp	.+28     	; 0x2b8 <_ZN14HardwareSerial5flushEv+0x3c>
     29c:	0f b6       	in	r0, 0x3f	; 63
     29e:	07 fc       	sbrc	r0, 7
     2a0:	f5 cf       	rjmp	.-22     	; 0x28c <_ZN14HardwareSerial5flushEv+0x10>
     2a2:	80 81       	ld	r24, Z
     2a4:	85 ff       	sbrs	r24, 5
     2a6:	f2 cf       	rjmp	.-28     	; 0x28c <_ZN14HardwareSerial5flushEv+0x10>
     2a8:	a8 89       	ldd	r26, Y+16	; 0x10
     2aa:	b9 89       	ldd	r27, Y+17	; 0x11
     2ac:	8c 91       	ld	r24, X
     2ae:	85 ff       	sbrs	r24, 5
     2b0:	ed cf       	rjmp	.-38     	; 0x28c <_ZN14HardwareSerial5flushEv+0x10>
     2b2:	ce 01       	movw	r24, r28
     2b4:	75 df       	rcall	.-278    	; 0x1a0 <_ZN14HardwareSerial17_tx_udr_empty_irqEv>
     2b6:	e8 cf       	rjmp	.-48     	; 0x288 <_ZN14HardwareSerial5flushEv+0xc>
     2b8:	df 91       	pop	r29
     2ba:	cf 91       	pop	r28
     2bc:	08 95       	ret

000002be <__vector_18>:
     2be:	1f 92       	push	r1
     2c0:	0f 92       	push	r0
     2c2:	0f b6       	in	r0, 0x3f	; 63
     2c4:	0f 92       	push	r0
     2c6:	11 24       	eor	r1, r1
     2c8:	2f 93       	push	r18
     2ca:	8f 93       	push	r24
     2cc:	9f 93       	push	r25
     2ce:	ef 93       	push	r30
     2d0:	ff 93       	push	r31
     2d2:	e0 91 32 01 	lds	r30, 0x0132	; 0x800132 <__data_end+0x10>
     2d6:	f0 91 33 01 	lds	r31, 0x0133	; 0x800133 <__data_end+0x11>
     2da:	80 81       	ld	r24, Z
     2dc:	e0 91 38 01 	lds	r30, 0x0138	; 0x800138 <__data_end+0x16>
     2e0:	f0 91 39 01 	lds	r31, 0x0139	; 0x800139 <__data_end+0x17>
     2e4:	82 fd       	sbrc	r24, 2
     2e6:	12 c0       	rjmp	.+36     	; 0x30c <__vector_18+0x4e>
     2e8:	90 81       	ld	r25, Z
     2ea:	80 91 3b 01 	lds	r24, 0x013B	; 0x80013b <__data_end+0x19>
     2ee:	8f 5f       	subi	r24, 0xFF	; 255
     2f0:	8f 73       	andi	r24, 0x3F	; 63
     2f2:	20 91 3c 01 	lds	r18, 0x013C	; 0x80013c <__data_end+0x1a>
     2f6:	82 17       	cp	r24, r18
     2f8:	51 f0       	breq	.+20     	; 0x30e <__vector_18+0x50>
     2fa:	e0 91 3b 01 	lds	r30, 0x013B	; 0x80013b <__data_end+0x19>
     2fe:	f0 e0       	ldi	r31, 0x00	; 0
     300:	ee 5d       	subi	r30, 0xDE	; 222
     302:	fe 4f       	sbci	r31, 0xFE	; 254
     304:	95 8f       	std	Z+29, r25	; 0x1d
     306:	80 93 3b 01 	sts	0x013B, r24	; 0x80013b <__data_end+0x19>
     30a:	01 c0       	rjmp	.+2      	; 0x30e <__vector_18+0x50>
     30c:	80 81       	ld	r24, Z
     30e:	ff 91       	pop	r31
     310:	ef 91       	pop	r30
     312:	9f 91       	pop	r25
     314:	8f 91       	pop	r24
     316:	2f 91       	pop	r18
     318:	0f 90       	pop	r0
     31a:	0f be       	out	0x3f, r0	; 63
     31c:	0f 90       	pop	r0
     31e:	1f 90       	pop	r1
     320:	18 95       	reti

00000322 <__vector_19>:
     322:	1f 92       	push	r1
     324:	0f 92       	push	r0
     326:	0f b6       	in	r0, 0x3f	; 63
     328:	0f 92       	push	r0
     32a:	11 24       	eor	r1, r1
     32c:	2f 93       	push	r18
     32e:	3f 93       	push	r19
     330:	4f 93       	push	r20
     332:	5f 93       	push	r21
     334:	6f 93       	push	r22
     336:	7f 93       	push	r23
     338:	8f 93       	push	r24
     33a:	9f 93       	push	r25
     33c:	af 93       	push	r26
     33e:	bf 93       	push	r27
     340:	ef 93       	push	r30
     342:	ff 93       	push	r31
     344:	82 e2       	ldi	r24, 0x22	; 34
     346:	91 e0       	ldi	r25, 0x01	; 1
     348:	2b df       	rcall	.-426    	; 0x1a0 <_ZN14HardwareSerial17_tx_udr_empty_irqEv>
     34a:	ff 91       	pop	r31
     34c:	ef 91       	pop	r30
     34e:	bf 91       	pop	r27
     350:	af 91       	pop	r26
     352:	9f 91       	pop	r25
     354:	8f 91       	pop	r24
     356:	7f 91       	pop	r23
     358:	6f 91       	pop	r22
     35a:	5f 91       	pop	r21
     35c:	4f 91       	pop	r20
     35e:	3f 91       	pop	r19
     360:	2f 91       	pop	r18
     362:	0f 90       	pop	r0
     364:	0f be       	out	0x3f, r0	; 63
     366:	0f 90       	pop	r0
     368:	1f 90       	pop	r1
     36a:	18 95       	reti

0000036c <_Z17Serial0_availablev>:
     36c:	82 e2       	ldi	r24, 0x22	; 34
     36e:	91 e0       	ldi	r25, 0x01	; 1
     370:	cd de       	rcall	.-614    	; 0x10c <_ZN14HardwareSerial9availableEv>
     372:	21 e0       	ldi	r18, 0x01	; 1
     374:	89 2b       	or	r24, r25
     376:	09 f4       	brne	.+2      	; 0x37a <_Z17Serial0_availablev+0xe>
     378:	20 e0       	ldi	r18, 0x00	; 0
     37a:	82 2f       	mov	r24, r18
     37c:	08 95       	ret

0000037e <_GLOBAL__sub_I___vector_18>:
     37e:	e2 e2       	ldi	r30, 0x22	; 34
     380:	f1 e0       	ldi	r31, 0x01	; 1
     382:	13 82       	std	Z+3, r1	; 0x03
     384:	12 82       	std	Z+2, r1	; 0x02
     386:	88 ee       	ldi	r24, 0xE8	; 232
     388:	93 e0       	ldi	r25, 0x03	; 3
     38a:	a0 e0       	ldi	r26, 0x00	; 0
     38c:	b0 e0       	ldi	r27, 0x00	; 0
     38e:	84 83       	std	Z+4, r24	; 0x04
     390:	95 83       	std	Z+5, r25	; 0x05
     392:	a6 83       	std	Z+6, r26	; 0x06
     394:	b7 83       	std	Z+7, r27	; 0x07
     396:	89 e0       	ldi	r24, 0x09	; 9
     398:	91 e0       	ldi	r25, 0x01	; 1
     39a:	91 83       	std	Z+1, r25	; 0x01
     39c:	80 83       	st	Z, r24
     39e:	85 ec       	ldi	r24, 0xC5	; 197
     3a0:	90 e0       	ldi	r25, 0x00	; 0
     3a2:	95 87       	std	Z+13, r25	; 0x0d
     3a4:	84 87       	std	Z+12, r24	; 0x0c
     3a6:	84 ec       	ldi	r24, 0xC4	; 196
     3a8:	90 e0       	ldi	r25, 0x00	; 0
     3aa:	97 87       	std	Z+15, r25	; 0x0f
     3ac:	86 87       	std	Z+14, r24	; 0x0e
     3ae:	80 ec       	ldi	r24, 0xC0	; 192
     3b0:	90 e0       	ldi	r25, 0x00	; 0
     3b2:	91 8b       	std	Z+17, r25	; 0x11
     3b4:	80 8b       	std	Z+16, r24	; 0x10
     3b6:	81 ec       	ldi	r24, 0xC1	; 193
     3b8:	90 e0       	ldi	r25, 0x00	; 0
     3ba:	93 8b       	std	Z+19, r25	; 0x13
     3bc:	82 8b       	std	Z+18, r24	; 0x12
     3be:	82 ec       	ldi	r24, 0xC2	; 194
     3c0:	90 e0       	ldi	r25, 0x00	; 0
     3c2:	95 8b       	std	Z+21, r25	; 0x15
     3c4:	84 8b       	std	Z+20, r24	; 0x14
     3c6:	86 ec       	ldi	r24, 0xC6	; 198
     3c8:	90 e0       	ldi	r25, 0x00	; 0
     3ca:	97 8b       	std	Z+23, r25	; 0x17
     3cc:	86 8b       	std	Z+22, r24	; 0x16
     3ce:	11 8e       	std	Z+25, r1	; 0x19
     3d0:	12 8e       	std	Z+26, r1	; 0x1a
     3d2:	13 8e       	std	Z+27, r1	; 0x1b
     3d4:	14 8e       	std	Z+28, r1	; 0x1c
     3d6:	08 95       	ret

000003d8 <_ZN5Print5writeEPKhj>:
     3d8:	cf 92       	push	r12
     3da:	df 92       	push	r13
     3dc:	ef 92       	push	r14
     3de:	ff 92       	push	r15
     3e0:	0f 93       	push	r16
     3e2:	1f 93       	push	r17
     3e4:	cf 93       	push	r28
     3e6:	df 93       	push	r29
     3e8:	6c 01       	movw	r12, r24
     3ea:	7a 01       	movw	r14, r20
     3ec:	8b 01       	movw	r16, r22
     3ee:	c0 e0       	ldi	r28, 0x00	; 0
     3f0:	d0 e0       	ldi	r29, 0x00	; 0
     3f2:	ce 15       	cp	r28, r14
     3f4:	df 05       	cpc	r29, r15
     3f6:	81 f0       	breq	.+32     	; 0x418 <__LOCK_REGION_LENGTH__+0x18>
     3f8:	d8 01       	movw	r26, r16
     3fa:	6d 91       	ld	r22, X+
     3fc:	8d 01       	movw	r16, r26
     3fe:	d6 01       	movw	r26, r12
     400:	ed 91       	ld	r30, X+
     402:	fc 91       	ld	r31, X
     404:	01 90       	ld	r0, Z+
     406:	f0 81       	ld	r31, Z
     408:	e0 2d       	mov	r30, r0
     40a:	c6 01       	movw	r24, r12
     40c:	09 95       	icall
     40e:	89 2b       	or	r24, r25
     410:	11 f0       	breq	.+4      	; 0x416 <__LOCK_REGION_LENGTH__+0x16>
     412:	21 96       	adiw	r28, 0x01	; 1
     414:	ee cf       	rjmp	.-36     	; 0x3f2 <_ZN5Print5writeEPKhj+0x1a>
     416:	7e 01       	movw	r14, r28
     418:	c7 01       	movw	r24, r14
     41a:	df 91       	pop	r29
     41c:	cf 91       	pop	r28
     41e:	1f 91       	pop	r17
     420:	0f 91       	pop	r16
     422:	ff 90       	pop	r15
     424:	ef 90       	pop	r14
     426:	df 90       	pop	r13
     428:	cf 90       	pop	r12
     42a:	08 95       	ret

0000042c <_Z12disableTimerh>:
     42c:	81 30       	cpi	r24, 0x01	; 1
     42e:	39 f0       	breq	.+14     	; 0x43e <_Z12disableTimerh+0x12>
     430:	18 f0       	brcs	.+6      	; 0x438 <_Z12disableTimerh+0xc>
     432:	82 30       	cpi	r24, 0x02	; 2
     434:	51 f0       	breq	.+20     	; 0x44a <_Z12disableTimerh+0x1e>
     436:	08 95       	ret
     438:	10 92 6e 00 	sts	0x006E, r1	; 0x80006e <__TEXT_REGION_LENGTH__+0x7e006e>
     43c:	08 95       	ret
     43e:	80 91 6f 00 	lds	r24, 0x006F	; 0x80006f <__TEXT_REGION_LENGTH__+0x7e006f>
     442:	8d 7f       	andi	r24, 0xFD	; 253
     444:	80 93 6f 00 	sts	0x006F, r24	; 0x80006f <__TEXT_REGION_LENGTH__+0x7e006f>
     448:	08 95       	ret
     44a:	80 91 70 00 	lds	r24, 0x0070	; 0x800070 <__TEXT_REGION_LENGTH__+0x7e0070>
     44e:	8d 7f       	andi	r24, 0xFD	; 253
     450:	80 93 70 00 	sts	0x0070, r24	; 0x800070 <__TEXT_REGION_LENGTH__+0x7e0070>
     454:	81 e0       	ldi	r24, 0x01	; 1
     456:	80 93 b0 00 	sts	0x00B0, r24	; 0x8000b0 <__TEXT_REGION_LENGTH__+0x7e00b0>
     45a:	80 91 b1 00 	lds	r24, 0x00B1	; 0x8000b1 <__TEXT_REGION_LENGTH__+0x7e00b1>
     45e:	88 7f       	andi	r24, 0xF8	; 248
     460:	84 60       	ori	r24, 0x04	; 4
     462:	80 93 b1 00 	sts	0x00B1, r24	; 0x8000b1 <__TEXT_REGION_LENGTH__+0x7e00b1>
     466:	10 92 b3 00 	sts	0x00B3, r1	; 0x8000b3 <__TEXT_REGION_LENGTH__+0x7e00b3>
     46a:	08 95       	ret

0000046c <_Z6noToneh>:
     46c:	cf 93       	push	r28
     46e:	c8 2f       	mov	r28, r24
     470:	80 91 00 01 	lds	r24, 0x0100	; 0x800100 <__data_start>
     474:	c8 13       	cpse	r28, r24
     476:	07 c0       	rjmp	.+14     	; 0x486 <_Z6noToneh+0x1a>
     478:	e8 e6       	ldi	r30, 0x68	; 104
     47a:	f0 e0       	ldi	r31, 0x00	; 0
     47c:	84 91       	lpm	r24, Z
     47e:	9f ef       	ldi	r25, 0xFF	; 255
     480:	90 93 00 01 	sts	0x0100, r25	; 0x800100 <__data_start>
     484:	01 c0       	rjmp	.+2      	; 0x488 <_Z6noToneh+0x1c>
     486:	8f ef       	ldi	r24, 0xFF	; 255
     488:	d1 df       	rcall	.-94     	; 0x42c <_Z12disableTimerh>
     48a:	60 e0       	ldi	r22, 0x00	; 0
     48c:	8c 2f       	mov	r24, r28
     48e:	cf 91       	pop	r28
     490:	9f c1       	rjmp	.+830    	; 0x7d0 <digitalWrite>

00000492 <__vector_7>:
     492:	1f 92       	push	r1
     494:	0f 92       	push	r0
     496:	0f b6       	in	r0, 0x3f	; 63
     498:	0f 92       	push	r0
     49a:	11 24       	eor	r1, r1
     49c:	2f 93       	push	r18
     49e:	3f 93       	push	r19
     4a0:	4f 93       	push	r20
     4a2:	5f 93       	push	r21
     4a4:	6f 93       	push	r22
     4a6:	7f 93       	push	r23
     4a8:	8f 93       	push	r24
     4aa:	9f 93       	push	r25
     4ac:	af 93       	push	r26
     4ae:	bf 93       	push	r27
     4b0:	ef 93       	push	r30
     4b2:	ff 93       	push	r31
     4b4:	80 91 c2 01 	lds	r24, 0x01C2	; 0x8001c2 <timer2_toggle_count>
     4b8:	90 91 c3 01 	lds	r25, 0x01C3	; 0x8001c3 <timer2_toggle_count+0x1>
     4bc:	a0 91 c4 01 	lds	r26, 0x01C4	; 0x8001c4 <timer2_toggle_count+0x2>
     4c0:	b0 91 c5 01 	lds	r27, 0x01C5	; 0x8001c5 <timer2_toggle_count+0x3>
     4c4:	89 2b       	or	r24, r25
     4c6:	8a 2b       	or	r24, r26
     4c8:	8b 2b       	or	r24, r27
     4ca:	51 f1       	breq	.+84     	; 0x520 <__vector_7+0x8e>
     4cc:	90 91 bf 01 	lds	r25, 0x01BF	; 0x8001bf <timer2_pin_mask>
     4d0:	e0 91 c0 01 	lds	r30, 0x01C0	; 0x8001c0 <timer2_pin_port>
     4d4:	f0 91 c1 01 	lds	r31, 0x01C1	; 0x8001c1 <timer2_pin_port+0x1>
     4d8:	80 81       	ld	r24, Z
     4da:	89 27       	eor	r24, r25
     4dc:	80 83       	st	Z, r24
     4de:	80 91 c2 01 	lds	r24, 0x01C2	; 0x8001c2 <timer2_toggle_count>
     4e2:	90 91 c3 01 	lds	r25, 0x01C3	; 0x8001c3 <timer2_toggle_count+0x1>
     4e6:	a0 91 c4 01 	lds	r26, 0x01C4	; 0x8001c4 <timer2_toggle_count+0x2>
     4ea:	b0 91 c5 01 	lds	r27, 0x01C5	; 0x8001c5 <timer2_toggle_count+0x3>
     4ee:	18 16       	cp	r1, r24
     4f0:	19 06       	cpc	r1, r25
     4f2:	1a 06       	cpc	r1, r26
     4f4:	1b 06       	cpc	r1, r27
     4f6:	bc f4       	brge	.+46     	; 0x526 <__vector_7+0x94>
     4f8:	80 91 c2 01 	lds	r24, 0x01C2	; 0x8001c2 <timer2_toggle_count>
     4fc:	90 91 c3 01 	lds	r25, 0x01C3	; 0x8001c3 <timer2_toggle_count+0x1>
     500:	a0 91 c4 01 	lds	r26, 0x01C4	; 0x8001c4 <timer2_toggle_count+0x2>
     504:	b0 91 c5 01 	lds	r27, 0x01C5	; 0x8001c5 <timer2_toggle_count+0x3>
     508:	01 97       	sbiw	r24, 0x01	; 1
     50a:	a1 09       	sbc	r26, r1
     50c:	b1 09       	sbc	r27, r1
     50e:	80 93 c2 01 	sts	0x01C2, r24	; 0x8001c2 <timer2_toggle_count>
     512:	90 93 c3 01 	sts	0x01C3, r25	; 0x8001c3 <timer2_toggle_count+0x1>
     516:	a0 93 c4 01 	sts	0x01C4, r26	; 0x8001c4 <timer2_toggle_count+0x2>
     51a:	b0 93 c5 01 	sts	0x01C5, r27	; 0x8001c5 <timer2_toggle_count+0x3>
     51e:	03 c0       	rjmp	.+6      	; 0x526 <__vector_7+0x94>
     520:	80 91 00 01 	lds	r24, 0x0100	; 0x800100 <__data_start>
     524:	a3 df       	rcall	.-186    	; 0x46c <_Z6noToneh>
     526:	ff 91       	pop	r31
     528:	ef 91       	pop	r30
     52a:	bf 91       	pop	r27
     52c:	af 91       	pop	r26
     52e:	9f 91       	pop	r25
     530:	8f 91       	pop	r24
     532:	7f 91       	pop	r23
     534:	6f 91       	pop	r22
     536:	5f 91       	pop	r21
     538:	4f 91       	pop	r20
     53a:	3f 91       	pop	r19
     53c:	2f 91       	pop	r18
     53e:	0f 90       	pop	r0
     540:	0f be       	out	0x3f, r0	; 63
     542:	0f 90       	pop	r0
     544:	1f 90       	pop	r1
     546:	18 95       	reti

00000548 <nothing>:
     548:	08 95       	ret

0000054a <__vector_1>:
     54a:	1f 92       	push	r1
     54c:	0f 92       	push	r0
     54e:	0f b6       	in	r0, 0x3f	; 63
     550:	0f 92       	push	r0
     552:	11 24       	eor	r1, r1
     554:	2f 93       	push	r18
     556:	3f 93       	push	r19
     558:	4f 93       	push	r20
     55a:	5f 93       	push	r21
     55c:	6f 93       	push	r22
     55e:	7f 93       	push	r23
     560:	8f 93       	push	r24
     562:	9f 93       	push	r25
     564:	af 93       	push	r26
     566:	bf 93       	push	r27
     568:	ef 93       	push	r30
     56a:	ff 93       	push	r31
     56c:	e0 91 01 01 	lds	r30, 0x0101	; 0x800101 <intFunc>
     570:	f0 91 02 01 	lds	r31, 0x0102	; 0x800102 <intFunc+0x1>
     574:	09 95       	icall
     576:	ff 91       	pop	r31
     578:	ef 91       	pop	r30
     57a:	bf 91       	pop	r27
     57c:	af 91       	pop	r26
     57e:	9f 91       	pop	r25
     580:	8f 91       	pop	r24
     582:	7f 91       	pop	r23
     584:	6f 91       	pop	r22
     586:	5f 91       	pop	r21
     588:	4f 91       	pop	r20
     58a:	3f 91       	pop	r19
     58c:	2f 91       	pop	r18
     58e:	0f 90       	pop	r0
     590:	0f be       	out	0x3f, r0	; 63
     592:	0f 90       	pop	r0
     594:	1f 90       	pop	r1
     596:	18 95       	reti

00000598 <__vector_2>:
     598:	1f 92       	push	r1
     59a:	0f 92       	push	r0
     59c:	0f b6       	in	r0, 0x3f	; 63
     59e:	0f 92       	push	r0
     5a0:	11 24       	eor	r1, r1
     5a2:	2f 93       	push	r18
     5a4:	3f 93       	push	r19
     5a6:	4f 93       	push	r20
     5a8:	5f 93       	push	r21
     5aa:	6f 93       	push	r22
     5ac:	7f 93       	push	r23
     5ae:	8f 93       	push	r24
     5b0:	9f 93       	push	r25
     5b2:	af 93       	push	r26
     5b4:	bf 93       	push	r27
     5b6:	ef 93       	push	r30
     5b8:	ff 93       	push	r31
     5ba:	e0 91 03 01 	lds	r30, 0x0103	; 0x800103 <intFunc+0x2>
     5be:	f0 91 04 01 	lds	r31, 0x0104	; 0x800104 <intFunc+0x3>
     5c2:	09 95       	icall
     5c4:	ff 91       	pop	r31
     5c6:	ef 91       	pop	r30
     5c8:	bf 91       	pop	r27
     5ca:	af 91       	pop	r26
     5cc:	9f 91       	pop	r25
     5ce:	8f 91       	pop	r24
     5d0:	7f 91       	pop	r23
     5d2:	6f 91       	pop	r22
     5d4:	5f 91       	pop	r21
     5d6:	4f 91       	pop	r20
     5d8:	3f 91       	pop	r19
     5da:	2f 91       	pop	r18
     5dc:	0f 90       	pop	r0
     5de:	0f be       	out	0x3f, r0	; 63
     5e0:	0f 90       	pop	r0
     5e2:	1f 90       	pop	r1
     5e4:	18 95       	reti

000005e6 <initVariant>:
     5e6:	08 95       	ret

000005e8 <main>:
     5e8:	53 d0       	rcall	.+166    	; 0x690 <init>
     5ea:	fd df       	rcall	.-6      	; 0x5e6 <initVariant>
     5ec:	49 d6       	rcall	.+3218   	; 0x1280 <setup>
     5ee:	c3 ec       	ldi	r28, 0xC3	; 195
     5f0:	d0 e0       	ldi	r29, 0x00	; 0
     5f2:	59 d6       	rcall	.+3250   	; 0x12a6 <loop>
     5f4:	20 97       	sbiw	r28, 0x00	; 0
     5f6:	e9 f3       	breq	.-6      	; 0x5f2 <main+0xa>
     5f8:	c6 dd       	rcall	.-1140   	; 0x186 <_Z14serialEventRunv>
     5fa:	fb cf       	rjmp	.-10     	; 0x5f2 <main+0xa>

000005fc <__vector_16>:
     5fc:	1f 92       	push	r1
     5fe:	0f 92       	push	r0
     600:	0f b6       	in	r0, 0x3f	; 63
     602:	0f 92       	push	r0
     604:	11 24       	eor	r1, r1
     606:	2f 93       	push	r18
     608:	3f 93       	push	r19
     60a:	8f 93       	push	r24
     60c:	9f 93       	push	r25
     60e:	af 93       	push	r26
     610:	bf 93       	push	r27
     612:	80 91 c7 01 	lds	r24, 0x01C7	; 0x8001c7 <timer0_millis>
     616:	90 91 c8 01 	lds	r25, 0x01C8	; 0x8001c8 <timer0_millis+0x1>
     61a:	a0 91 c9 01 	lds	r26, 0x01C9	; 0x8001c9 <timer0_millis+0x2>
     61e:	b0 91 ca 01 	lds	r27, 0x01CA	; 0x8001ca <timer0_millis+0x3>
     622:	30 91 c6 01 	lds	r19, 0x01C6	; 0x8001c6 <timer0_fract>
     626:	23 e0       	ldi	r18, 0x03	; 3
     628:	23 0f       	add	r18, r19
     62a:	2d 37       	cpi	r18, 0x7D	; 125
     62c:	20 f4       	brcc	.+8      	; 0x636 <__vector_16+0x3a>
     62e:	01 96       	adiw	r24, 0x01	; 1
     630:	a1 1d       	adc	r26, r1
     632:	b1 1d       	adc	r27, r1
     634:	05 c0       	rjmp	.+10     	; 0x640 <__vector_16+0x44>
     636:	26 e8       	ldi	r18, 0x86	; 134
     638:	23 0f       	add	r18, r19
     63a:	02 96       	adiw	r24, 0x02	; 2
     63c:	a1 1d       	adc	r26, r1
     63e:	b1 1d       	adc	r27, r1
     640:	20 93 c6 01 	sts	0x01C6, r18	; 0x8001c6 <timer0_fract>
     644:	80 93 c7 01 	sts	0x01C7, r24	; 0x8001c7 <timer0_millis>
     648:	90 93 c8 01 	sts	0x01C8, r25	; 0x8001c8 <timer0_millis+0x1>
     64c:	a0 93 c9 01 	sts	0x01C9, r26	; 0x8001c9 <timer0_millis+0x2>
     650:	b0 93 ca 01 	sts	0x01CA, r27	; 0x8001ca <timer0_millis+0x3>
     654:	80 91 cb 01 	lds	r24, 0x01CB	; 0x8001cb <timer0_overflow_count>
     658:	90 91 cc 01 	lds	r25, 0x01CC	; 0x8001cc <timer0_overflow_count+0x1>
     65c:	a0 91 cd 01 	lds	r26, 0x01CD	; 0x8001cd <timer0_overflow_count+0x2>
     660:	b0 91 ce 01 	lds	r27, 0x01CE	; 0x8001ce <timer0_overflow_count+0x3>
     664:	01 96       	adiw	r24, 0x01	; 1
     666:	a1 1d       	adc	r26, r1
     668:	b1 1d       	adc	r27, r1
     66a:	80 93 cb 01 	sts	0x01CB, r24	; 0x8001cb <timer0_overflow_count>
     66e:	90 93 cc 01 	sts	0x01CC, r25	; 0x8001cc <timer0_overflow_count+0x1>
     672:	a0 93 cd 01 	sts	0x01CD, r26	; 0x8001cd <timer0_overflow_count+0x2>
     676:	b0 93 ce 01 	sts	0x01CE, r27	; 0x8001ce <timer0_overflow_count+0x3>
     67a:	bf 91       	pop	r27
     67c:	af 91       	pop	r26
     67e:	9f 91       	pop	r25
     680:	8f 91       	pop	r24
     682:	3f 91       	pop	r19
     684:	2f 91       	pop	r18
     686:	0f 90       	pop	r0
     688:	0f be       	out	0x3f, r0	; 63
     68a:	0f 90       	pop	r0
     68c:	1f 90       	pop	r1
     68e:	18 95       	reti

00000690 <init>:
     690:	78 94       	sei
     692:	84 b5       	in	r24, 0x24	; 36
     694:	82 60       	ori	r24, 0x02	; 2
     696:	84 bd       	out	0x24, r24	; 36
     698:	84 b5       	in	r24, 0x24	; 36
     69a:	81 60       	ori	r24, 0x01	; 1
     69c:	84 bd       	out	0x24, r24	; 36
     69e:	85 b5       	in	r24, 0x25	; 37
     6a0:	82 60       	ori	r24, 0x02	; 2
     6a2:	85 bd       	out	0x25, r24	; 37
     6a4:	85 b5       	in	r24, 0x25	; 37
     6a6:	81 60       	ori	r24, 0x01	; 1
     6a8:	85 bd       	out	0x25, r24	; 37
     6aa:	ee e6       	ldi	r30, 0x6E	; 110
     6ac:	f0 e0       	ldi	r31, 0x00	; 0
     6ae:	80 81       	ld	r24, Z
     6b0:	81 60       	ori	r24, 0x01	; 1
     6b2:	80 83       	st	Z, r24
     6b4:	e1 e8       	ldi	r30, 0x81	; 129
     6b6:	f0 e0       	ldi	r31, 0x00	; 0
     6b8:	10 82       	st	Z, r1
     6ba:	80 81       	ld	r24, Z
     6bc:	82 60       	ori	r24, 0x02	; 2
     6be:	80 83       	st	Z, r24
     6c0:	80 81       	ld	r24, Z
     6c2:	81 60       	ori	r24, 0x01	; 1
     6c4:	80 83       	st	Z, r24
     6c6:	e0 e8       	ldi	r30, 0x80	; 128
     6c8:	f0 e0       	ldi	r31, 0x00	; 0
     6ca:	80 81       	ld	r24, Z
     6cc:	81 60       	ori	r24, 0x01	; 1
     6ce:	80 83       	st	Z, r24
     6d0:	e1 eb       	ldi	r30, 0xB1	; 177
     6d2:	f0 e0       	ldi	r31, 0x00	; 0
     6d4:	80 81       	ld	r24, Z
     6d6:	84 60       	ori	r24, 0x04	; 4
     6d8:	80 83       	st	Z, r24
     6da:	e0 eb       	ldi	r30, 0xB0	; 176
     6dc:	f0 e0       	ldi	r31, 0x00	; 0
     6de:	80 81       	ld	r24, Z
     6e0:	81 60       	ori	r24, 0x01	; 1
     6e2:	80 83       	st	Z, r24
     6e4:	ea e7       	ldi	r30, 0x7A	; 122
     6e6:	f0 e0       	ldi	r31, 0x00	; 0
     6e8:	80 81       	ld	r24, Z
     6ea:	84 60       	ori	r24, 0x04	; 4
     6ec:	80 83       	st	Z, r24
     6ee:	80 81       	ld	r24, Z
     6f0:	82 60       	ori	r24, 0x02	; 2
     6f2:	80 83       	st	Z, r24
     6f4:	80 81       	ld	r24, Z
     6f6:	81 60       	ori	r24, 0x01	; 1
     6f8:	80 83       	st	Z, r24
     6fa:	80 81       	ld	r24, Z
     6fc:	80 68       	ori	r24, 0x80	; 128
     6fe:	80 83       	st	Z, r24
     700:	10 92 c1 00 	sts	0x00C1, r1	; 0x8000c1 <__TEXT_REGION_LENGTH__+0x7e00c1>
     704:	08 95       	ret

00000706 <turnOffPWM>:
     706:	83 30       	cpi	r24, 0x03	; 3
     708:	81 f0       	breq	.+32     	; 0x72a <turnOffPWM+0x24>
     70a:	28 f4       	brcc	.+10     	; 0x716 <turnOffPWM+0x10>
     70c:	81 30       	cpi	r24, 0x01	; 1
     70e:	99 f0       	breq	.+38     	; 0x736 <turnOffPWM+0x30>
     710:	82 30       	cpi	r24, 0x02	; 2
     712:	a1 f0       	breq	.+40     	; 0x73c <turnOffPWM+0x36>
     714:	08 95       	ret
     716:	87 30       	cpi	r24, 0x07	; 7
     718:	a9 f0       	breq	.+42     	; 0x744 <turnOffPWM+0x3e>
     71a:	88 30       	cpi	r24, 0x08	; 8
     71c:	b9 f0       	breq	.+46     	; 0x74c <turnOffPWM+0x46>
     71e:	84 30       	cpi	r24, 0x04	; 4
     720:	d1 f4       	brne	.+52     	; 0x756 <turnOffPWM+0x50>
     722:	80 91 80 00 	lds	r24, 0x0080	; 0x800080 <__TEXT_REGION_LENGTH__+0x7e0080>
     726:	8f 7d       	andi	r24, 0xDF	; 223
     728:	03 c0       	rjmp	.+6      	; 0x730 <turnOffPWM+0x2a>
     72a:	80 91 80 00 	lds	r24, 0x0080	; 0x800080 <__TEXT_REGION_LENGTH__+0x7e0080>
     72e:	8f 77       	andi	r24, 0x7F	; 127
     730:	80 93 80 00 	sts	0x0080, r24	; 0x800080 <__TEXT_REGION_LENGTH__+0x7e0080>
     734:	08 95       	ret
     736:	84 b5       	in	r24, 0x24	; 36
     738:	8f 77       	andi	r24, 0x7F	; 127
     73a:	02 c0       	rjmp	.+4      	; 0x740 <turnOffPWM+0x3a>
     73c:	84 b5       	in	r24, 0x24	; 36
     73e:	8f 7d       	andi	r24, 0xDF	; 223
     740:	84 bd       	out	0x24, r24	; 36
     742:	08 95       	ret
     744:	80 91 b0 00 	lds	r24, 0x00B0	; 0x8000b0 <__TEXT_REGION_LENGTH__+0x7e00b0>
     748:	8f 77       	andi	r24, 0x7F	; 127
     74a:	03 c0       	rjmp	.+6      	; 0x752 <turnOffPWM+0x4c>
     74c:	80 91 b0 00 	lds	r24, 0x00B0	; 0x8000b0 <__TEXT_REGION_LENGTH__+0x7e00b0>
     750:	8f 7d       	andi	r24, 0xDF	; 223
     752:	80 93 b0 00 	sts	0x00B0, r24	; 0x8000b0 <__TEXT_REGION_LENGTH__+0x7e00b0>
     756:	08 95       	ret

00000758 <pinMode>:
     758:	cf 93       	push	r28
     75a:	df 93       	push	r29
     75c:	90 e0       	ldi	r25, 0x00	; 0
     75e:	fc 01       	movw	r30, r24
     760:	e3 58       	subi	r30, 0x83	; 131
     762:	ff 4f       	sbci	r31, 0xFF	; 255
     764:	24 91       	lpm	r18, Z
     766:	fc 01       	movw	r30, r24
     768:	ef 56       	subi	r30, 0x6F	; 111
     76a:	ff 4f       	sbci	r31, 0xFF	; 255
     76c:	84 91       	lpm	r24, Z
     76e:	88 23       	and	r24, r24
     770:	61 f1       	breq	.+88     	; 0x7ca <pinMode+0x72>
     772:	90 e0       	ldi	r25, 0x00	; 0
     774:	88 0f       	add	r24, r24
     776:	99 1f       	adc	r25, r25
     778:	fc 01       	movw	r30, r24
     77a:	e1 55       	subi	r30, 0x51	; 81
     77c:	ff 4f       	sbci	r31, 0xFF	; 255
     77e:	c5 91       	lpm	r28, Z+
     780:	d4 91       	lpm	r29, Z
     782:	fc 01       	movw	r30, r24
     784:	eb 55       	subi	r30, 0x5B	; 91
     786:	ff 4f       	sbci	r31, 0xFF	; 255
     788:	a5 91       	lpm	r26, Z+
     78a:	b4 91       	lpm	r27, Z
     78c:	61 11       	cpse	r22, r1
     78e:	09 c0       	rjmp	.+18     	; 0x7a2 <pinMode+0x4a>
     790:	9f b7       	in	r25, 0x3f	; 63
     792:	f8 94       	cli
     794:	88 81       	ld	r24, Y
     796:	20 95       	com	r18
     798:	82 23       	and	r24, r18
     79a:	88 83       	st	Y, r24
     79c:	ec 91       	ld	r30, X
     79e:	2e 23       	and	r18, r30
     7a0:	0b c0       	rjmp	.+22     	; 0x7b8 <pinMode+0x60>
     7a2:	62 30       	cpi	r22, 0x02	; 2
     7a4:	61 f4       	brne	.+24     	; 0x7be <pinMode+0x66>
     7a6:	9f b7       	in	r25, 0x3f	; 63
     7a8:	f8 94       	cli
     7aa:	88 81       	ld	r24, Y
     7ac:	32 2f       	mov	r19, r18
     7ae:	30 95       	com	r19
     7b0:	83 23       	and	r24, r19
     7b2:	88 83       	st	Y, r24
     7b4:	ec 91       	ld	r30, X
     7b6:	2e 2b       	or	r18, r30
     7b8:	2c 93       	st	X, r18
     7ba:	9f bf       	out	0x3f, r25	; 63
     7bc:	06 c0       	rjmp	.+12     	; 0x7ca <pinMode+0x72>
     7be:	8f b7       	in	r24, 0x3f	; 63
     7c0:	f8 94       	cli
     7c2:	e8 81       	ld	r30, Y
     7c4:	2e 2b       	or	r18, r30
     7c6:	28 83       	st	Y, r18
     7c8:	8f bf       	out	0x3f, r24	; 63
     7ca:	df 91       	pop	r29
     7cc:	cf 91       	pop	r28
     7ce:	08 95       	ret

000007d0 <digitalWrite>:
     7d0:	1f 93       	push	r17
     7d2:	cf 93       	push	r28
     7d4:	df 93       	push	r29
     7d6:	28 2f       	mov	r18, r24
     7d8:	30 e0       	ldi	r19, 0x00	; 0
     7da:	f9 01       	movw	r30, r18
     7dc:	e7 59       	subi	r30, 0x97	; 151
     7de:	ff 4f       	sbci	r31, 0xFF	; 255
     7e0:	84 91       	lpm	r24, Z
     7e2:	f9 01       	movw	r30, r18
     7e4:	e3 58       	subi	r30, 0x83	; 131
     7e6:	ff 4f       	sbci	r31, 0xFF	; 255
     7e8:	d4 91       	lpm	r29, Z
     7ea:	f9 01       	movw	r30, r18
     7ec:	ef 56       	subi	r30, 0x6F	; 111
     7ee:	ff 4f       	sbci	r31, 0xFF	; 255
     7f0:	c4 91       	lpm	r28, Z
     7f2:	cc 23       	and	r28, r28
     7f4:	b9 f0       	breq	.+46     	; 0x824 <digitalWrite+0x54>
     7f6:	16 2f       	mov	r17, r22
     7f8:	81 11       	cpse	r24, r1
     7fa:	85 df       	rcall	.-246    	; 0x706 <turnOffPWM>
     7fc:	ec 2f       	mov	r30, r28
     7fe:	f0 e0       	ldi	r31, 0x00	; 0
     800:	ee 0f       	add	r30, r30
     802:	ff 1f       	adc	r31, r31
     804:	eb 55       	subi	r30, 0x5B	; 91
     806:	ff 4f       	sbci	r31, 0xFF	; 255
     808:	a5 91       	lpm	r26, Z+
     80a:	b4 91       	lpm	r27, Z
     80c:	9f b7       	in	r25, 0x3f	; 63
     80e:	f8 94       	cli
     810:	11 11       	cpse	r17, r1
     812:	04 c0       	rjmp	.+8      	; 0x81c <digitalWrite+0x4c>
     814:	8c 91       	ld	r24, X
     816:	d0 95       	com	r29
     818:	d8 23       	and	r29, r24
     81a:	02 c0       	rjmp	.+4      	; 0x820 <digitalWrite+0x50>
     81c:	ec 91       	ld	r30, X
     81e:	de 2b       	or	r29, r30
     820:	dc 93       	st	X, r29
     822:	9f bf       	out	0x3f, r25	; 63
     824:	df 91       	pop	r29
     826:	cf 91       	pop	r28
     828:	1f 91       	pop	r17
     82a:	08 95       	ret

0000082c <pvPortMalloc>:
     82c:	cf 93       	push	r28
     82e:	df 93       	push	r29
     830:	ec 01       	movw	r28, r24
     832:	ac d3       	rcall	.+1880   	; 0xf8c <vTaskSuspendAll>
     834:	80 91 cf 01 	lds	r24, 0x01CF	; 0x8001cf <pucAlignedHeap.2085>
     838:	90 91 d0 01 	lds	r25, 0x01D0	; 0x8001d0 <pucAlignedHeap.2085+0x1>
     83c:	89 2b       	or	r24, r25
     83e:	31 f4       	brne	.+12     	; 0x84c <pvPortMalloc+0x20>
     840:	84 ed       	ldi	r24, 0xD4	; 212
     842:	91 e0       	ldi	r25, 0x01	; 1
     844:	90 93 d0 01 	sts	0x01D0, r25	; 0x8001d0 <pucAlignedHeap.2085+0x1>
     848:	80 93 cf 01 	sts	0x01CF, r24	; 0x8001cf <pucAlignedHeap.2085>
     84c:	20 91 d1 01 	lds	r18, 0x01D1	; 0x8001d1 <xNextFreeByte>
     850:	30 91 d2 01 	lds	r19, 0x01D2	; 0x8001d2 <xNextFreeByte+0x1>
     854:	c9 01       	movw	r24, r18
     856:	8c 0f       	add	r24, r28
     858:	9d 1f       	adc	r25, r29
     85a:	87 3e       	cpi	r24, 0xE7	; 231
     85c:	43 e0       	ldi	r20, 0x03	; 3
     85e:	94 07       	cpc	r25, r20
     860:	70 f4       	brcc	.+28     	; 0x87e <pvPortMalloc+0x52>
     862:	28 17       	cp	r18, r24
     864:	39 07       	cpc	r19, r25
     866:	58 f4       	brcc	.+22     	; 0x87e <pvPortMalloc+0x52>
     868:	c0 91 cf 01 	lds	r28, 0x01CF	; 0x8001cf <pucAlignedHeap.2085>
     86c:	d0 91 d0 01 	lds	r29, 0x01D0	; 0x8001d0 <pucAlignedHeap.2085+0x1>
     870:	c2 0f       	add	r28, r18
     872:	d3 1f       	adc	r29, r19
     874:	90 93 d2 01 	sts	0x01D2, r25	; 0x8001d2 <xNextFreeByte+0x1>
     878:	80 93 d1 01 	sts	0x01D1, r24	; 0x8001d1 <xNextFreeByte>
     87c:	02 c0       	rjmp	.+4      	; 0x882 <pvPortMalloc+0x56>
     87e:	c0 e0       	ldi	r28, 0x00	; 0
     880:	d0 e0       	ldi	r29, 0x00	; 0
     882:	32 d4       	rcall	.+2148   	; 0x10e8 <xTaskResumeAll>
     884:	ce 01       	movw	r24, r28
     886:	df 91       	pop	r29
     888:	cf 91       	pop	r28
     88a:	08 95       	ret

0000088c <vPortFree>:
     88c:	08 95       	ret

0000088e <pxPortInitialiseStack>:
     88e:	31 e1       	ldi	r19, 0x11	; 17
     890:	fc 01       	movw	r30, r24
     892:	30 83       	st	Z, r19
     894:	31 97       	sbiw	r30, 0x01	; 1
     896:	22 e2       	ldi	r18, 0x22	; 34
     898:	20 83       	st	Z, r18
     89a:	31 97       	sbiw	r30, 0x01	; 1
     89c:	a3 e3       	ldi	r26, 0x33	; 51
     89e:	a0 83       	st	Z, r26
     8a0:	31 97       	sbiw	r30, 0x01	; 1
     8a2:	60 83       	st	Z, r22
     8a4:	31 97       	sbiw	r30, 0x01	; 1
     8a6:	70 83       	st	Z, r23
     8a8:	31 97       	sbiw	r30, 0x01	; 1
     8aa:	10 82       	st	Z, r1
     8ac:	31 97       	sbiw	r30, 0x01	; 1
     8ae:	60 e8       	ldi	r22, 0x80	; 128
     8b0:	60 83       	st	Z, r22
     8b2:	31 97       	sbiw	r30, 0x01	; 1
     8b4:	10 82       	st	Z, r1
     8b6:	31 97       	sbiw	r30, 0x01	; 1
     8b8:	62 e0       	ldi	r22, 0x02	; 2
     8ba:	60 83       	st	Z, r22
     8bc:	31 97       	sbiw	r30, 0x01	; 1
     8be:	63 e0       	ldi	r22, 0x03	; 3
     8c0:	60 83       	st	Z, r22
     8c2:	31 97       	sbiw	r30, 0x01	; 1
     8c4:	64 e0       	ldi	r22, 0x04	; 4
     8c6:	60 83       	st	Z, r22
     8c8:	31 97       	sbiw	r30, 0x01	; 1
     8ca:	65 e0       	ldi	r22, 0x05	; 5
     8cc:	60 83       	st	Z, r22
     8ce:	31 97       	sbiw	r30, 0x01	; 1
     8d0:	66 e0       	ldi	r22, 0x06	; 6
     8d2:	60 83       	st	Z, r22
     8d4:	31 97       	sbiw	r30, 0x01	; 1
     8d6:	67 e0       	ldi	r22, 0x07	; 7
     8d8:	60 83       	st	Z, r22
     8da:	31 97       	sbiw	r30, 0x01	; 1
     8dc:	68 e0       	ldi	r22, 0x08	; 8
     8de:	60 83       	st	Z, r22
     8e0:	31 97       	sbiw	r30, 0x01	; 1
     8e2:	69 e0       	ldi	r22, 0x09	; 9
     8e4:	60 83       	st	Z, r22
     8e6:	31 97       	sbiw	r30, 0x01	; 1
     8e8:	60 e1       	ldi	r22, 0x10	; 16
     8ea:	60 83       	st	Z, r22
     8ec:	31 97       	sbiw	r30, 0x01	; 1
     8ee:	30 83       	st	Z, r19
     8f0:	31 97       	sbiw	r30, 0x01	; 1
     8f2:	32 e1       	ldi	r19, 0x12	; 18
     8f4:	30 83       	st	Z, r19
     8f6:	31 97       	sbiw	r30, 0x01	; 1
     8f8:	33 e1       	ldi	r19, 0x13	; 19
     8fa:	30 83       	st	Z, r19
     8fc:	31 97       	sbiw	r30, 0x01	; 1
     8fe:	34 e1       	ldi	r19, 0x14	; 20
     900:	30 83       	st	Z, r19
     902:	31 97       	sbiw	r30, 0x01	; 1
     904:	35 e1       	ldi	r19, 0x15	; 21
     906:	30 83       	st	Z, r19
     908:	31 97       	sbiw	r30, 0x01	; 1
     90a:	36 e1       	ldi	r19, 0x16	; 22
     90c:	30 83       	st	Z, r19
     90e:	31 97       	sbiw	r30, 0x01	; 1
     910:	37 e1       	ldi	r19, 0x17	; 23
     912:	30 83       	st	Z, r19
     914:	31 97       	sbiw	r30, 0x01	; 1
     916:	38 e1       	ldi	r19, 0x18	; 24
     918:	30 83       	st	Z, r19
     91a:	31 97       	sbiw	r30, 0x01	; 1
     91c:	39 e1       	ldi	r19, 0x19	; 25
     91e:	30 83       	st	Z, r19
     920:	31 97       	sbiw	r30, 0x01	; 1
     922:	30 e2       	ldi	r19, 0x20	; 32
     924:	30 83       	st	Z, r19
     926:	31 97       	sbiw	r30, 0x01	; 1
     928:	31 e2       	ldi	r19, 0x21	; 33
     92a:	30 83       	st	Z, r19
     92c:	31 97       	sbiw	r30, 0x01	; 1
     92e:	20 83       	st	Z, r18
     930:	31 97       	sbiw	r30, 0x01	; 1
     932:	23 e2       	ldi	r18, 0x23	; 35
     934:	20 83       	st	Z, r18
     936:	31 97       	sbiw	r30, 0x01	; 1
     938:	40 83       	st	Z, r20
     93a:	31 97       	sbiw	r30, 0x01	; 1
     93c:	50 83       	st	Z, r21
     93e:	31 97       	sbiw	r30, 0x01	; 1
     940:	26 e2       	ldi	r18, 0x26	; 38
     942:	20 83       	st	Z, r18
     944:	31 97       	sbiw	r30, 0x01	; 1
     946:	27 e2       	ldi	r18, 0x27	; 39
     948:	20 83       	st	Z, r18
     94a:	31 97       	sbiw	r30, 0x01	; 1
     94c:	28 e2       	ldi	r18, 0x28	; 40
     94e:	20 83       	st	Z, r18
     950:	31 97       	sbiw	r30, 0x01	; 1
     952:	29 e2       	ldi	r18, 0x29	; 41
     954:	20 83       	st	Z, r18
     956:	31 97       	sbiw	r30, 0x01	; 1
     958:	20 e3       	ldi	r18, 0x30	; 48
     95a:	20 83       	st	Z, r18
     95c:	31 97       	sbiw	r30, 0x01	; 1
     95e:	21 e3       	ldi	r18, 0x31	; 49
     960:	20 83       	st	Z, r18
     962:	86 97       	sbiw	r24, 0x26	; 38
     964:	08 95       	ret

00000966 <xPortStartScheduler>:
     966:	10 92 89 00 	sts	0x0089, r1	; 0x800089 <__TEXT_REGION_LENGTH__+0x7e0089>
     96a:	89 ef       	ldi	r24, 0xF9	; 249
     96c:	80 93 88 00 	sts	0x0088, r24	; 0x800088 <__TEXT_REGION_LENGTH__+0x7e0088>
     970:	8b e0       	ldi	r24, 0x0B	; 11
     972:	80 93 81 00 	sts	0x0081, r24	; 0x800081 <__TEXT_REGION_LENGTH__+0x7e0081>
     976:	ef e6       	ldi	r30, 0x6F	; 111
     978:	f0 e0       	ldi	r31, 0x00	; 0
     97a:	80 81       	ld	r24, Z
     97c:	82 60       	ori	r24, 0x02	; 2
     97e:	80 83       	st	Z, r24
     980:	a0 91 16 06 	lds	r26, 0x0616	; 0x800616 <pxCurrentTCB>
     984:	b0 91 17 06 	lds	r27, 0x0617	; 0x800617 <pxCurrentTCB+0x1>
     988:	cd 91       	ld	r28, X+
     98a:	cd bf       	out	0x3d, r28	; 61
     98c:	dd 91       	ld	r29, X+
     98e:	de bf       	out	0x3e, r29	; 62
     990:	ff 91       	pop	r31
     992:	ef 91       	pop	r30
     994:	df 91       	pop	r29
     996:	cf 91       	pop	r28
     998:	bf 91       	pop	r27
     99a:	af 91       	pop	r26
     99c:	9f 91       	pop	r25
     99e:	8f 91       	pop	r24
     9a0:	7f 91       	pop	r23
     9a2:	6f 91       	pop	r22
     9a4:	5f 91       	pop	r21
     9a6:	4f 91       	pop	r20
     9a8:	3f 91       	pop	r19
     9aa:	2f 91       	pop	r18
     9ac:	1f 91       	pop	r17
     9ae:	0f 91       	pop	r16
     9b0:	ff 90       	pop	r15
     9b2:	ef 90       	pop	r14
     9b4:	df 90       	pop	r13
     9b6:	cf 90       	pop	r12
     9b8:	bf 90       	pop	r11
     9ba:	af 90       	pop	r10
     9bc:	9f 90       	pop	r9
     9be:	8f 90       	pop	r8
     9c0:	7f 90       	pop	r7
     9c2:	6f 90       	pop	r6
     9c4:	5f 90       	pop	r5
     9c6:	4f 90       	pop	r4
     9c8:	3f 90       	pop	r3
     9ca:	2f 90       	pop	r2
     9cc:	1f 90       	pop	r1
     9ce:	0f 90       	pop	r0
     9d0:	0f be       	out	0x3f, r0	; 63
     9d2:	0f 90       	pop	r0
     9d4:	08 95       	ret
     9d6:	81 e0       	ldi	r24, 0x01	; 1
     9d8:	08 95       	ret

000009da <vPortYield>:
     9da:	0f 92       	push	r0
     9dc:	0f b6       	in	r0, 0x3f	; 63
     9de:	f8 94       	cli
     9e0:	0f 92       	push	r0
     9e2:	1f 92       	push	r1
     9e4:	11 24       	eor	r1, r1
     9e6:	2f 92       	push	r2
     9e8:	3f 92       	push	r3
     9ea:	4f 92       	push	r4
     9ec:	5f 92       	push	r5
     9ee:	6f 92       	push	r6
     9f0:	7f 92       	push	r7
     9f2:	8f 92       	push	r8
     9f4:	9f 92       	push	r9
     9f6:	af 92       	push	r10
     9f8:	bf 92       	push	r11
     9fa:	cf 92       	push	r12
     9fc:	df 92       	push	r13
     9fe:	ef 92       	push	r14
     a00:	ff 92       	push	r15
     a02:	0f 93       	push	r16
     a04:	1f 93       	push	r17
     a06:	2f 93       	push	r18
     a08:	3f 93       	push	r19
     a0a:	4f 93       	push	r20
     a0c:	5f 93       	push	r21
     a0e:	6f 93       	push	r22
     a10:	7f 93       	push	r23
     a12:	8f 93       	push	r24
     a14:	9f 93       	push	r25
     a16:	af 93       	push	r26
     a18:	bf 93       	push	r27
     a1a:	cf 93       	push	r28
     a1c:	df 93       	push	r29
     a1e:	ef 93       	push	r30
     a20:	ff 93       	push	r31
     a22:	a0 91 16 06 	lds	r26, 0x0616	; 0x800616 <pxCurrentTCB>
     a26:	b0 91 17 06 	lds	r27, 0x0617	; 0x800617 <pxCurrentTCB+0x1>
     a2a:	0d b6       	in	r0, 0x3d	; 61
     a2c:	0d 92       	st	X+, r0
     a2e:	0e b6       	in	r0, 0x3e	; 62
     a30:	0d 92       	st	X+, r0
     a32:	d3 d3       	rcall	.+1958   	; 0x11da <vTaskSwitchContext>
     a34:	a0 91 16 06 	lds	r26, 0x0616	; 0x800616 <pxCurrentTCB>
     a38:	b0 91 17 06 	lds	r27, 0x0617	; 0x800617 <pxCurrentTCB+0x1>
     a3c:	cd 91       	ld	r28, X+
     a3e:	cd bf       	out	0x3d, r28	; 61
     a40:	dd 91       	ld	r29, X+
     a42:	de bf       	out	0x3e, r29	; 62
     a44:	ff 91       	pop	r31
     a46:	ef 91       	pop	r30
     a48:	df 91       	pop	r29
     a4a:	cf 91       	pop	r28
     a4c:	bf 91       	pop	r27
     a4e:	af 91       	pop	r26
     a50:	9f 91       	pop	r25
     a52:	8f 91       	pop	r24
     a54:	7f 91       	pop	r23
     a56:	6f 91       	pop	r22
     a58:	5f 91       	pop	r21
     a5a:	4f 91       	pop	r20
     a5c:	3f 91       	pop	r19
     a5e:	2f 91       	pop	r18
     a60:	1f 91       	pop	r17
     a62:	0f 91       	pop	r16
     a64:	ff 90       	pop	r15
     a66:	ef 90       	pop	r14
     a68:	df 90       	pop	r13
     a6a:	cf 90       	pop	r12
     a6c:	bf 90       	pop	r11
     a6e:	af 90       	pop	r10
     a70:	9f 90       	pop	r9
     a72:	8f 90       	pop	r8
     a74:	7f 90       	pop	r7
     a76:	6f 90       	pop	r6
     a78:	5f 90       	pop	r5
     a7a:	4f 90       	pop	r4
     a7c:	3f 90       	pop	r3
     a7e:	2f 90       	pop	r2
     a80:	1f 90       	pop	r1
     a82:	0f 90       	pop	r0
     a84:	0f be       	out	0x3f, r0	; 63
     a86:	0f 90       	pop	r0
     a88:	08 95       	ret

00000a8a <vPortYieldFromTick>:
     a8a:	0f 92       	push	r0
     a8c:	0f b6       	in	r0, 0x3f	; 63
     a8e:	f8 94       	cli
     a90:	0f 92       	push	r0
     a92:	1f 92       	push	r1
     a94:	11 24       	eor	r1, r1
     a96:	2f 92       	push	r2
     a98:	3f 92       	push	r3
     a9a:	4f 92       	push	r4
     a9c:	5f 92       	push	r5
     a9e:	6f 92       	push	r6
     aa0:	7f 92       	push	r7
     aa2:	8f 92       	push	r8
     aa4:	9f 92       	push	r9
     aa6:	af 92       	push	r10
     aa8:	bf 92       	push	r11
     aaa:	cf 92       	push	r12
     aac:	df 92       	push	r13
     aae:	ef 92       	push	r14
     ab0:	ff 92       	push	r15
     ab2:	0f 93       	push	r16
     ab4:	1f 93       	push	r17
     ab6:	2f 93       	push	r18
     ab8:	3f 93       	push	r19
     aba:	4f 93       	push	r20
     abc:	5f 93       	push	r21
     abe:	6f 93       	push	r22
     ac0:	7f 93       	push	r23
     ac2:	8f 93       	push	r24
     ac4:	9f 93       	push	r25
     ac6:	af 93       	push	r26
     ac8:	bf 93       	push	r27
     aca:	cf 93       	push	r28
     acc:	df 93       	push	r29
     ace:	ef 93       	push	r30
     ad0:	ff 93       	push	r31
     ad2:	a0 91 16 06 	lds	r26, 0x0616	; 0x800616 <pxCurrentTCB>
     ad6:	b0 91 17 06 	lds	r27, 0x0617	; 0x800617 <pxCurrentTCB+0x1>
     ada:	0d b6       	in	r0, 0x3d	; 61
     adc:	0d 92       	st	X+, r0
     ade:	0e b6       	in	r0, 0x3e	; 62
     ae0:	0d 92       	st	X+, r0
     ae2:	5a d2       	rcall	.+1204   	; 0xf98 <xTaskIncrementTick>
     ae4:	81 11       	cpse	r24, r1
     ae6:	79 d3       	rcall	.+1778   	; 0x11da <vTaskSwitchContext>
     ae8:	a0 91 16 06 	lds	r26, 0x0616	; 0x800616 <pxCurrentTCB>
     aec:	b0 91 17 06 	lds	r27, 0x0617	; 0x800617 <pxCurrentTCB+0x1>
     af0:	cd 91       	ld	r28, X+
     af2:	cd bf       	out	0x3d, r28	; 61
     af4:	dd 91       	ld	r29, X+
     af6:	de bf       	out	0x3e, r29	; 62
     af8:	ff 91       	pop	r31
     afa:	ef 91       	pop	r30
     afc:	df 91       	pop	r29
     afe:	cf 91       	pop	r28
     b00:	bf 91       	pop	r27
     b02:	af 91       	pop	r26
     b04:	9f 91       	pop	r25
     b06:	8f 91       	pop	r24
     b08:	7f 91       	pop	r23
     b0a:	6f 91       	pop	r22
     b0c:	5f 91       	pop	r21
     b0e:	4f 91       	pop	r20
     b10:	3f 91       	pop	r19
     b12:	2f 91       	pop	r18
     b14:	1f 91       	pop	r17
     b16:	0f 91       	pop	r16
     b18:	ff 90       	pop	r15
     b1a:	ef 90       	pop	r14
     b1c:	df 90       	pop	r13
     b1e:	cf 90       	pop	r12
     b20:	bf 90       	pop	r11
     b22:	af 90       	pop	r10
     b24:	9f 90       	pop	r9
     b26:	8f 90       	pop	r8
     b28:	7f 90       	pop	r7
     b2a:	6f 90       	pop	r6
     b2c:	5f 90       	pop	r5
     b2e:	4f 90       	pop	r4
     b30:	3f 90       	pop	r3
     b32:	2f 90       	pop	r2
     b34:	1f 90       	pop	r1
     b36:	0f 90       	pop	r0
     b38:	0f be       	out	0x3f, r0	; 63
     b3a:	0f 90       	pop	r0
     b3c:	08 95       	ret

00000b3e <__vector_11>:
     b3e:	a5 df       	rcall	.-182    	; 0xa8a <vPortYieldFromTick>
     b40:	18 95       	reti

00000b42 <vListInitialise>:
     b42:	fc 01       	movw	r30, r24
     b44:	03 96       	adiw	r24, 0x03	; 3
     b46:	92 83       	std	Z+2, r25	; 0x02
     b48:	81 83       	std	Z+1, r24	; 0x01
     b4a:	2f ef       	ldi	r18, 0xFF	; 255
     b4c:	3f ef       	ldi	r19, 0xFF	; 255
     b4e:	34 83       	std	Z+4, r19	; 0x04
     b50:	23 83       	std	Z+3, r18	; 0x03
     b52:	96 83       	std	Z+6, r25	; 0x06
     b54:	85 83       	std	Z+5, r24	; 0x05
     b56:	90 87       	std	Z+8, r25	; 0x08
     b58:	87 83       	std	Z+7, r24	; 0x07
     b5a:	10 82       	st	Z, r1
     b5c:	08 95       	ret

00000b5e <vListInitialiseItem>:
     b5e:	fc 01       	movw	r30, r24
     b60:	11 86       	std	Z+9, r1	; 0x09
     b62:	10 86       	std	Z+8, r1	; 0x08
     b64:	08 95       	ret

00000b66 <vListInsertEnd>:
     b66:	cf 93       	push	r28
     b68:	df 93       	push	r29
     b6a:	9c 01       	movw	r18, r24
     b6c:	fb 01       	movw	r30, r22
     b6e:	dc 01       	movw	r26, r24
     b70:	11 96       	adiw	r26, 0x01	; 1
     b72:	cd 91       	ld	r28, X+
     b74:	dc 91       	ld	r29, X
     b76:	12 97       	sbiw	r26, 0x02	; 2
     b78:	d3 83       	std	Z+3, r29	; 0x03
     b7a:	c2 83       	std	Z+2, r28	; 0x02
     b7c:	8c 81       	ldd	r24, Y+4	; 0x04
     b7e:	9d 81       	ldd	r25, Y+5	; 0x05
     b80:	95 83       	std	Z+5, r25	; 0x05
     b82:	84 83       	std	Z+4, r24	; 0x04
     b84:	8c 81       	ldd	r24, Y+4	; 0x04
     b86:	9d 81       	ldd	r25, Y+5	; 0x05
     b88:	dc 01       	movw	r26, r24
     b8a:	13 96       	adiw	r26, 0x03	; 3
     b8c:	7c 93       	st	X, r23
     b8e:	6e 93       	st	-X, r22
     b90:	12 97       	sbiw	r26, 0x02	; 2
     b92:	7d 83       	std	Y+5, r23	; 0x05
     b94:	6c 83       	std	Y+4, r22	; 0x04
     b96:	31 87       	std	Z+9, r19	; 0x09
     b98:	20 87       	std	Z+8, r18	; 0x08
     b9a:	f9 01       	movw	r30, r18
     b9c:	80 81       	ld	r24, Z
     b9e:	8f 5f       	subi	r24, 0xFF	; 255
     ba0:	80 83       	st	Z, r24
     ba2:	df 91       	pop	r29
     ba4:	cf 91       	pop	r28
     ba6:	08 95       	ret

00000ba8 <vListInsert>:
     ba8:	0f 93       	push	r16
     baa:	1f 93       	push	r17
     bac:	cf 93       	push	r28
     bae:	df 93       	push	r29
     bb0:	8c 01       	movw	r16, r24
     bb2:	fb 01       	movw	r30, r22
     bb4:	80 81       	ld	r24, Z
     bb6:	91 81       	ldd	r25, Z+1	; 0x01
     bb8:	8f 3f       	cpi	r24, 0xFF	; 255
     bba:	2f ef       	ldi	r18, 0xFF	; 255
     bbc:	92 07       	cpc	r25, r18
     bbe:	21 f4       	brne	.+8      	; 0xbc8 <vListInsert+0x20>
     bc0:	e8 01       	movw	r28, r16
     bc2:	af 81       	ldd	r26, Y+7	; 0x07
     bc4:	b8 85       	ldd	r27, Y+8	; 0x08
     bc6:	0e c0       	rjmp	.+28     	; 0xbe4 <vListInsert+0x3c>
     bc8:	d8 01       	movw	r26, r16
     bca:	13 96       	adiw	r26, 0x03	; 3
     bcc:	12 96       	adiw	r26, 0x02	; 2
     bce:	2d 91       	ld	r18, X+
     bd0:	3c 91       	ld	r19, X
     bd2:	13 97       	sbiw	r26, 0x03	; 3
     bd4:	e9 01       	movw	r28, r18
     bd6:	48 81       	ld	r20, Y
     bd8:	59 81       	ldd	r21, Y+1	; 0x01
     bda:	84 17       	cp	r24, r20
     bdc:	95 07       	cpc	r25, r21
     bde:	10 f0       	brcs	.+4      	; 0xbe4 <vListInsert+0x3c>
     be0:	d9 01       	movw	r26, r18
     be2:	f4 cf       	rjmp	.-24     	; 0xbcc <vListInsert+0x24>
     be4:	12 96       	adiw	r26, 0x02	; 2
     be6:	8d 91       	ld	r24, X+
     be8:	9c 91       	ld	r25, X
     bea:	13 97       	sbiw	r26, 0x03	; 3
     bec:	93 83       	std	Z+3, r25	; 0x03
     bee:	82 83       	std	Z+2, r24	; 0x02
     bf0:	ec 01       	movw	r28, r24
     bf2:	fd 83       	std	Y+5, r31	; 0x05
     bf4:	ec 83       	std	Y+4, r30	; 0x04
     bf6:	b5 83       	std	Z+5, r27	; 0x05
     bf8:	a4 83       	std	Z+4, r26	; 0x04
     bfa:	13 96       	adiw	r26, 0x03	; 3
     bfc:	fc 93       	st	X, r31
     bfe:	ee 93       	st	-X, r30
     c00:	12 97       	sbiw	r26, 0x02	; 2
     c02:	11 87       	std	Z+9, r17	; 0x09
     c04:	00 87       	std	Z+8, r16	; 0x08
     c06:	f8 01       	movw	r30, r16
     c08:	80 81       	ld	r24, Z
     c0a:	8f 5f       	subi	r24, 0xFF	; 255
     c0c:	80 83       	st	Z, r24
     c0e:	df 91       	pop	r29
     c10:	cf 91       	pop	r28
     c12:	1f 91       	pop	r17
     c14:	0f 91       	pop	r16
     c16:	08 95       	ret

00000c18 <uxListRemove>:
     c18:	cf 93       	push	r28
     c1a:	df 93       	push	r29
     c1c:	fc 01       	movw	r30, r24
     c1e:	a0 85       	ldd	r26, Z+8	; 0x08
     c20:	b1 85       	ldd	r27, Z+9	; 0x09
     c22:	82 81       	ldd	r24, Z+2	; 0x02
     c24:	93 81       	ldd	r25, Z+3	; 0x03
     c26:	24 81       	ldd	r18, Z+4	; 0x04
     c28:	35 81       	ldd	r19, Z+5	; 0x05
     c2a:	ec 01       	movw	r28, r24
     c2c:	3d 83       	std	Y+5, r19	; 0x05
     c2e:	2c 83       	std	Y+4, r18	; 0x04
     c30:	c4 81       	ldd	r28, Z+4	; 0x04
     c32:	d5 81       	ldd	r29, Z+5	; 0x05
     c34:	9b 83       	std	Y+3, r25	; 0x03
     c36:	8a 83       	std	Y+2, r24	; 0x02
     c38:	11 96       	adiw	r26, 0x01	; 1
     c3a:	8d 91       	ld	r24, X+
     c3c:	9c 91       	ld	r25, X
     c3e:	12 97       	sbiw	r26, 0x02	; 2
     c40:	e8 17       	cp	r30, r24
     c42:	f9 07       	cpc	r31, r25
     c44:	21 f4       	brne	.+8      	; 0xc4e <uxListRemove+0x36>
     c46:	12 96       	adiw	r26, 0x02	; 2
     c48:	dc 93       	st	X, r29
     c4a:	ce 93       	st	-X, r28
     c4c:	11 97       	sbiw	r26, 0x01	; 1
     c4e:	11 86       	std	Z+9, r1	; 0x09
     c50:	10 86       	std	Z+8, r1	; 0x08
     c52:	8c 91       	ld	r24, X
     c54:	81 50       	subi	r24, 0x01	; 1
     c56:	8c 93       	st	X, r24
     c58:	8c 91       	ld	r24, X
     c5a:	df 91       	pop	r29
     c5c:	cf 91       	pop	r28
     c5e:	08 95       	ret

00000c60 <prvResetNextTaskUnblockTime>:
     c60:	e0 91 de 05 	lds	r30, 0x05DE	; 0x8005de <pxDelayedTaskList>
     c64:	f0 91 df 05 	lds	r31, 0x05DF	; 0x8005df <pxDelayedTaskList+0x1>
     c68:	80 81       	ld	r24, Z
     c6a:	81 11       	cpse	r24, r1
     c6c:	03 c0       	rjmp	.+6      	; 0xc74 <prvResetNextTaskUnblockTime+0x14>
     c6e:	8f ef       	ldi	r24, 0xFF	; 255
     c70:	9f ef       	ldi	r25, 0xFF	; 255
     c72:	0c c0       	rjmp	.+24     	; 0xc8c <prvResetNextTaskUnblockTime+0x2c>
     c74:	e0 91 de 05 	lds	r30, 0x05DE	; 0x8005de <pxDelayedTaskList>
     c78:	f0 91 df 05 	lds	r31, 0x05DF	; 0x8005df <pxDelayedTaskList+0x1>
     c7c:	05 80       	ldd	r0, Z+5	; 0x05
     c7e:	f6 81       	ldd	r31, Z+6	; 0x06
     c80:	e0 2d       	mov	r30, r0
     c82:	06 80       	ldd	r0, Z+6	; 0x06
     c84:	f7 81       	ldd	r31, Z+7	; 0x07
     c86:	e0 2d       	mov	r30, r0
     c88:	82 81       	ldd	r24, Z+2	; 0x02
     c8a:	93 81       	ldd	r25, Z+3	; 0x03
     c8c:	90 93 bf 05 	sts	0x05BF, r25	; 0x8005bf <xNextTaskUnblockTime+0x1>
     c90:	80 93 be 05 	sts	0x05BE, r24	; 0x8005be <xNextTaskUnblockTime>
     c94:	08 95       	ret

00000c96 <prvAddCurrentTaskToDelayedList.isra.2>:
     c96:	0f 93       	push	r16
     c98:	1f 93       	push	r17
     c9a:	cf 93       	push	r28
     c9c:	df 93       	push	r29
     c9e:	ec 01       	movw	r28, r24
     ca0:	00 91 c6 05 	lds	r16, 0x05C6	; 0x8005c6 <xTickCount>
     ca4:	10 91 c7 05 	lds	r17, 0x05C7	; 0x8005c7 <xTickCount+0x1>
     ca8:	80 91 16 06 	lds	r24, 0x0616	; 0x800616 <pxCurrentTCB>
     cac:	90 91 17 06 	lds	r25, 0x0617	; 0x800617 <pxCurrentTCB+0x1>
     cb0:	02 96       	adiw	r24, 0x02	; 2
     cb2:	b2 df       	rcall	.-156    	; 0xc18 <uxListRemove>
     cb4:	c0 0f       	add	r28, r16
     cb6:	d1 1f       	adc	r29, r17
     cb8:	e0 91 16 06 	lds	r30, 0x0616	; 0x800616 <pxCurrentTCB>
     cbc:	f0 91 17 06 	lds	r31, 0x0617	; 0x800617 <pxCurrentTCB+0x1>
     cc0:	d3 83       	std	Z+3, r29	; 0x03
     cc2:	c2 83       	std	Z+2, r28	; 0x02
     cc4:	60 91 16 06 	lds	r22, 0x0616	; 0x800616 <pxCurrentTCB>
     cc8:	70 91 17 06 	lds	r23, 0x0617	; 0x800617 <pxCurrentTCB+0x1>
     ccc:	c0 17       	cp	r28, r16
     cce:	d1 07       	cpc	r29, r17
     cd0:	58 f4       	brcc	.+22     	; 0xce8 <prvAddCurrentTaskToDelayedList.isra.2+0x52>
     cd2:	80 91 dc 05 	lds	r24, 0x05DC	; 0x8005dc <pxOverflowDelayedTaskList>
     cd6:	90 91 dd 05 	lds	r25, 0x05DD	; 0x8005dd <pxOverflowDelayedTaskList+0x1>
     cda:	6e 5f       	subi	r22, 0xFE	; 254
     cdc:	7f 4f       	sbci	r23, 0xFF	; 255
     cde:	df 91       	pop	r29
     ce0:	cf 91       	pop	r28
     ce2:	1f 91       	pop	r17
     ce4:	0f 91       	pop	r16
     ce6:	60 cf       	rjmp	.-320    	; 0xba8 <vListInsert>
     ce8:	80 91 de 05 	lds	r24, 0x05DE	; 0x8005de <pxDelayedTaskList>
     cec:	90 91 df 05 	lds	r25, 0x05DF	; 0x8005df <pxDelayedTaskList+0x1>
     cf0:	6e 5f       	subi	r22, 0xFE	; 254
     cf2:	7f 4f       	sbci	r23, 0xFF	; 255
     cf4:	59 df       	rcall	.-334    	; 0xba8 <vListInsert>
     cf6:	80 91 be 05 	lds	r24, 0x05BE	; 0x8005be <xNextTaskUnblockTime>
     cfa:	90 91 bf 05 	lds	r25, 0x05BF	; 0x8005bf <xNextTaskUnblockTime+0x1>
     cfe:	c8 17       	cp	r28, r24
     d00:	d9 07       	cpc	r29, r25
     d02:	20 f4       	brcc	.+8      	; 0xd0c <prvAddCurrentTaskToDelayedList.isra.2+0x76>
     d04:	d0 93 bf 05 	sts	0x05BF, r29	; 0x8005bf <xNextTaskUnblockTime+0x1>
     d08:	c0 93 be 05 	sts	0x05BE, r28	; 0x8005be <xNextTaskUnblockTime>
     d0c:	df 91       	pop	r29
     d0e:	cf 91       	pop	r28
     d10:	1f 91       	pop	r17
     d12:	0f 91       	pop	r16
     d14:	08 95       	ret

00000d16 <prvIdleTask>:
     d16:	80 91 c9 05 	lds	r24, 0x05C9	; 0x8005c9 <uxDeletedTasksWaitingCleanUp>
     d1a:	88 23       	and	r24, r24
     d1c:	f1 f0       	breq	.+60     	; 0xd5a <prvIdleTask+0x44>
     d1e:	0f b6       	in	r0, 0x3f	; 63
     d20:	f8 94       	cli
     d22:	0f 92       	push	r0
     d24:	e0 91 cf 05 	lds	r30, 0x05CF	; 0x8005cf <xTasksWaitingTermination+0x5>
     d28:	f0 91 d0 05 	lds	r31, 0x05D0	; 0x8005d0 <xTasksWaitingTermination+0x6>
     d2c:	c6 81       	ldd	r28, Z+6	; 0x06
     d2e:	d7 81       	ldd	r29, Z+7	; 0x07
     d30:	ce 01       	movw	r24, r28
     d32:	02 96       	adiw	r24, 0x02	; 2
     d34:	71 df       	rcall	.-286    	; 0xc18 <uxListRemove>
     d36:	80 91 c8 05 	lds	r24, 0x05C8	; 0x8005c8 <uxCurrentNumberOfTasks>
     d3a:	81 50       	subi	r24, 0x01	; 1
     d3c:	80 93 c8 05 	sts	0x05C8, r24	; 0x8005c8 <uxCurrentNumberOfTasks>
     d40:	80 91 c9 05 	lds	r24, 0x05C9	; 0x8005c9 <uxDeletedTasksWaitingCleanUp>
     d44:	81 50       	subi	r24, 0x01	; 1
     d46:	80 93 c9 05 	sts	0x05C9, r24	; 0x8005c9 <uxDeletedTasksWaitingCleanUp>
     d4a:	0f 90       	pop	r0
     d4c:	0f be       	out	0x3f, r0	; 63
     d4e:	8f 89       	ldd	r24, Y+23	; 0x17
     d50:	98 8d       	ldd	r25, Y+24	; 0x18
     d52:	9c dd       	rcall	.-1224   	; 0x88c <vPortFree>
     d54:	ce 01       	movw	r24, r28
     d56:	9a dd       	rcall	.-1228   	; 0x88c <vPortFree>
     d58:	de cf       	rjmp	.-68     	; 0xd16 <prvIdleTask>
     d5a:	80 91 f2 05 	lds	r24, 0x05F2	; 0x8005f2 <pxReadyTasksLists>
     d5e:	82 30       	cpi	r24, 0x02	; 2
     d60:	d0 f2       	brcs	.-76     	; 0xd16 <prvIdleTask>
     d62:	3b de       	rcall	.-906    	; 0x9da <vPortYield>
     d64:	d8 cf       	rjmp	.-80     	; 0xd16 <prvIdleTask>

00000d66 <xTaskCreate>:
     d66:	4f 92       	push	r4
     d68:	5f 92       	push	r5
     d6a:	6f 92       	push	r6
     d6c:	7f 92       	push	r7
     d6e:	8f 92       	push	r8
     d70:	9f 92       	push	r9
     d72:	af 92       	push	r10
     d74:	bf 92       	push	r11
     d76:	cf 92       	push	r12
     d78:	df 92       	push	r13
     d7a:	ef 92       	push	r14
     d7c:	ff 92       	push	r15
     d7e:	0f 93       	push	r16
     d80:	cf 93       	push	r28
     d82:	df 93       	push	r29
     d84:	4c 01       	movw	r8, r24
     d86:	6b 01       	movw	r12, r22
     d88:	5a 01       	movw	r10, r20
     d8a:	29 01       	movw	r4, r18
     d8c:	ca 01       	movw	r24, r20
     d8e:	4e dd       	rcall	.-1380   	; 0x82c <pvPortMalloc>
     d90:	3c 01       	movw	r6, r24
     d92:	89 2b       	or	r24, r25
     d94:	09 f4       	brne	.+2      	; 0xd98 <xTaskCreate+0x32>
     d96:	c1 c0       	rjmp	.+386    	; 0xf1a <xTaskCreate+0x1b4>
     d98:	86 e2       	ldi	r24, 0x26	; 38
     d9a:	90 e0       	ldi	r25, 0x00	; 0
     d9c:	47 dd       	rcall	.-1394   	; 0x82c <pvPortMalloc>
     d9e:	ec 01       	movw	r28, r24
     da0:	00 97       	sbiw	r24, 0x00	; 0
     da2:	89 f0       	breq	.+34     	; 0xdc6 <xTaskCreate+0x60>
     da4:	78 8e       	std	Y+24, r7	; 0x18
     da6:	6f 8a       	std	Y+23, r6	; 0x17
     da8:	21 e0       	ldi	r18, 0x01	; 1
     daa:	a2 1a       	sub	r10, r18
     dac:	b1 08       	sbc	r11, r1
     dae:	a6 0c       	add	r10, r6
     db0:	b7 1c       	adc	r11, r7
     db2:	c1 14       	cp	r12, r1
     db4:	d1 04       	cpc	r13, r1
     db6:	c1 f0       	breq	.+48     	; 0xde8 <xTaskCreate+0x82>
     db8:	bc 01       	movw	r22, r24
     dba:	67 5e       	subi	r22, 0xE7	; 231
     dbc:	7f 4f       	sbci	r23, 0xFF	; 255
     dbe:	f6 01       	movw	r30, r12
     dc0:	c6 01       	movw	r24, r12
     dc2:	08 96       	adiw	r24, 0x08	; 8
     dc4:	06 c0       	rjmp	.+12     	; 0xdd2 <xTaskCreate+0x6c>
     dc6:	c3 01       	movw	r24, r6
     dc8:	61 dd       	rcall	.-1342   	; 0x88c <vPortFree>
     dca:	a7 c0       	rjmp	.+334    	; 0xf1a <xTaskCreate+0x1b4>
     dcc:	e8 17       	cp	r30, r24
     dce:	f9 07       	cpc	r31, r25
     dd0:	49 f0       	breq	.+18     	; 0xde4 <xTaskCreate+0x7e>
     dd2:	9f 01       	movw	r18, r30
     dd4:	41 91       	ld	r20, Z+
     dd6:	db 01       	movw	r26, r22
     dd8:	4d 93       	st	X+, r20
     dda:	bd 01       	movw	r22, r26
     ddc:	d9 01       	movw	r26, r18
     dde:	2c 91       	ld	r18, X
     de0:	21 11       	cpse	r18, r1
     de2:	f4 cf       	rjmp	.-24     	; 0xdcc <xTaskCreate+0x66>
     de4:	18 a2       	std	Y+32, r1	; 0x20
     de6:	01 c0       	rjmp	.+2      	; 0xdea <xTaskCreate+0x84>
     de8:	19 8e       	std	Y+25, r1	; 0x19
     dea:	04 30       	cpi	r16, 0x04	; 4
     dec:	08 f0       	brcs	.+2      	; 0xdf0 <xTaskCreate+0x8a>
     dee:	03 e0       	ldi	r16, 0x03	; 3
     df0:	0e 8b       	std	Y+22, r16	; 0x16
     df2:	6e 01       	movw	r12, r28
     df4:	b2 e0       	ldi	r27, 0x02	; 2
     df6:	cb 0e       	add	r12, r27
     df8:	d1 1c       	adc	r13, r1
     dfa:	c6 01       	movw	r24, r12
     dfc:	b0 de       	rcall	.-672    	; 0xb5e <vListInitialiseItem>
     dfe:	ce 01       	movw	r24, r28
     e00:	0c 96       	adiw	r24, 0x0c	; 12
     e02:	ad de       	rcall	.-678    	; 0xb5e <vListInitialiseItem>
     e04:	d9 87       	std	Y+9, r29	; 0x09
     e06:	c8 87       	std	Y+8, r28	; 0x08
     e08:	84 e0       	ldi	r24, 0x04	; 4
     e0a:	90 e0       	ldi	r25, 0x00	; 0
     e0c:	80 1b       	sub	r24, r16
     e0e:	91 09       	sbc	r25, r1
     e10:	9d 87       	std	Y+13, r25	; 0x0d
     e12:	8c 87       	std	Y+12, r24	; 0x0c
     e14:	db 8b       	std	Y+19, r29	; 0x13
     e16:	ca 8b       	std	Y+18, r28	; 0x12
     e18:	19 a2       	std	Y+33, r1	; 0x21
     e1a:	1a a2       	std	Y+34, r1	; 0x22
     e1c:	1b a2       	std	Y+35, r1	; 0x23
     e1e:	1c a2       	std	Y+36, r1	; 0x24
     e20:	1d a2       	std	Y+37, r1	; 0x25
     e22:	a2 01       	movw	r20, r4
     e24:	b4 01       	movw	r22, r8
     e26:	c5 01       	movw	r24, r10
     e28:	32 dd       	rcall	.-1436   	; 0x88e <pxPortInitialiseStack>
     e2a:	99 83       	std	Y+1, r25	; 0x01
     e2c:	88 83       	st	Y, r24
     e2e:	e1 14       	cp	r14, r1
     e30:	f1 04       	cpc	r15, r1
     e32:	19 f0       	breq	.+6      	; 0xe3a <xTaskCreate+0xd4>
     e34:	f7 01       	movw	r30, r14
     e36:	d1 83       	std	Z+1, r29	; 0x01
     e38:	c0 83       	st	Z, r28
     e3a:	0f b6       	in	r0, 0x3f	; 63
     e3c:	f8 94       	cli
     e3e:	0f 92       	push	r0
     e40:	80 91 c8 05 	lds	r24, 0x05C8	; 0x8005c8 <uxCurrentNumberOfTasks>
     e44:	8f 5f       	subi	r24, 0xFF	; 255
     e46:	80 93 c8 05 	sts	0x05C8, r24	; 0x8005c8 <uxCurrentNumberOfTasks>
     e4a:	80 91 16 06 	lds	r24, 0x0616	; 0x800616 <pxCurrentTCB>
     e4e:	90 91 17 06 	lds	r25, 0x0617	; 0x800617 <pxCurrentTCB+0x1>
     e52:	89 2b       	or	r24, r25
     e54:	69 f5       	brne	.+90     	; 0xeb0 <xTaskCreate+0x14a>
     e56:	d0 93 17 06 	sts	0x0617, r29	; 0x800617 <pxCurrentTCB+0x1>
     e5a:	c0 93 16 06 	sts	0x0616, r28	; 0x800616 <pxCurrentTCB>
     e5e:	80 91 c8 05 	lds	r24, 0x05C8	; 0x8005c8 <uxCurrentNumberOfTasks>
     e62:	81 30       	cpi	r24, 0x01	; 1
     e64:	a9 f5       	brne	.+106    	; 0xed0 <xTaskCreate+0x16a>
     e66:	82 ef       	ldi	r24, 0xF2	; 242
     e68:	95 e0       	ldi	r25, 0x05	; 5
     e6a:	6b de       	rcall	.-810    	; 0xb42 <vListInitialise>
     e6c:	8b ef       	ldi	r24, 0xFB	; 251
     e6e:	95 e0       	ldi	r25, 0x05	; 5
     e70:	68 de       	rcall	.-816    	; 0xb42 <vListInitialise>
     e72:	84 e0       	ldi	r24, 0x04	; 4
     e74:	96 e0       	ldi	r25, 0x06	; 6
     e76:	65 de       	rcall	.-822    	; 0xb42 <vListInitialise>
     e78:	8d e0       	ldi	r24, 0x0D	; 13
     e7a:	96 e0       	ldi	r25, 0x06	; 6
     e7c:	62 de       	rcall	.-828    	; 0xb42 <vListInitialise>
     e7e:	89 ee       	ldi	r24, 0xE9	; 233
     e80:	95 e0       	ldi	r25, 0x05	; 5
     e82:	5f de       	rcall	.-834    	; 0xb42 <vListInitialise>
     e84:	80 ee       	ldi	r24, 0xE0	; 224
     e86:	95 e0       	ldi	r25, 0x05	; 5
     e88:	5c de       	rcall	.-840    	; 0xb42 <vListInitialise>
     e8a:	83 ed       	ldi	r24, 0xD3	; 211
     e8c:	95 e0       	ldi	r25, 0x05	; 5
     e8e:	59 de       	rcall	.-846    	; 0xb42 <vListInitialise>
     e90:	8a ec       	ldi	r24, 0xCA	; 202
     e92:	95 e0       	ldi	r25, 0x05	; 5
     e94:	56 de       	rcall	.-852    	; 0xb42 <vListInitialise>
     e96:	89 ee       	ldi	r24, 0xE9	; 233
     e98:	95 e0       	ldi	r25, 0x05	; 5
     e9a:	90 93 df 05 	sts	0x05DF, r25	; 0x8005df <pxDelayedTaskList+0x1>
     e9e:	80 93 de 05 	sts	0x05DE, r24	; 0x8005de <pxDelayedTaskList>
     ea2:	80 ee       	ldi	r24, 0xE0	; 224
     ea4:	95 e0       	ldi	r25, 0x05	; 5
     ea6:	90 93 dd 05 	sts	0x05DD, r25	; 0x8005dd <pxOverflowDelayedTaskList+0x1>
     eaa:	80 93 dc 05 	sts	0x05DC, r24	; 0x8005dc <pxOverflowDelayedTaskList>
     eae:	10 c0       	rjmp	.+32     	; 0xed0 <xTaskCreate+0x16a>
     eb0:	80 91 c4 05 	lds	r24, 0x05C4	; 0x8005c4 <xSchedulerRunning>
     eb4:	81 11       	cpse	r24, r1
     eb6:	0c c0       	rjmp	.+24     	; 0xed0 <xTaskCreate+0x16a>
     eb8:	e0 91 16 06 	lds	r30, 0x0616	; 0x800616 <pxCurrentTCB>
     ebc:	f0 91 17 06 	lds	r31, 0x0617	; 0x800617 <pxCurrentTCB+0x1>
     ec0:	96 89       	ldd	r25, Z+22	; 0x16
     ec2:	8e 89       	ldd	r24, Y+22	; 0x16
     ec4:	89 17       	cp	r24, r25
     ec6:	20 f0       	brcs	.+8      	; 0xed0 <xTaskCreate+0x16a>
     ec8:	d0 93 17 06 	sts	0x0617, r29	; 0x800617 <pxCurrentTCB+0x1>
     ecc:	c0 93 16 06 	sts	0x0616, r28	; 0x800616 <pxCurrentTCB>
     ed0:	80 91 c0 05 	lds	r24, 0x05C0	; 0x8005c0 <uxTaskNumber>
     ed4:	8f 5f       	subi	r24, 0xFF	; 255
     ed6:	80 93 c0 05 	sts	0x05C0, r24	; 0x8005c0 <uxTaskNumber>
     eda:	8e 89       	ldd	r24, Y+22	; 0x16
     edc:	90 91 c5 05 	lds	r25, 0x05C5	; 0x8005c5 <uxTopReadyPriority>
     ee0:	98 17       	cp	r25, r24
     ee2:	10 f4       	brcc	.+4      	; 0xee8 <xTaskCreate+0x182>
     ee4:	80 93 c5 05 	sts	0x05C5, r24	; 0x8005c5 <uxTopReadyPriority>
     ee8:	f9 e0       	ldi	r31, 0x09	; 9
     eea:	8f 9f       	mul	r24, r31
     eec:	c0 01       	movw	r24, r0
     eee:	11 24       	eor	r1, r1
     ef0:	b6 01       	movw	r22, r12
     ef2:	8e 50       	subi	r24, 0x0E	; 14
     ef4:	9a 4f       	sbci	r25, 0xFA	; 250
     ef6:	37 de       	rcall	.-914    	; 0xb66 <vListInsertEnd>
     ef8:	0f 90       	pop	r0
     efa:	0f be       	out	0x3f, r0	; 63
     efc:	80 91 c4 05 	lds	r24, 0x05C4	; 0x8005c4 <xSchedulerRunning>
     f00:	88 23       	and	r24, r24
     f02:	49 f0       	breq	.+18     	; 0xf16 <xTaskCreate+0x1b0>
     f04:	e0 91 16 06 	lds	r30, 0x0616	; 0x800616 <pxCurrentTCB>
     f08:	f0 91 17 06 	lds	r31, 0x0617	; 0x800617 <pxCurrentTCB+0x1>
     f0c:	96 89       	ldd	r25, Z+22	; 0x16
     f0e:	8e 89       	ldd	r24, Y+22	; 0x16
     f10:	98 17       	cp	r25, r24
     f12:	08 f4       	brcc	.+2      	; 0xf16 <xTaskCreate+0x1b0>
     f14:	62 dd       	rcall	.-1340   	; 0x9da <vPortYield>
     f16:	81 e0       	ldi	r24, 0x01	; 1
     f18:	01 c0       	rjmp	.+2      	; 0xf1c <xTaskCreate+0x1b6>
     f1a:	8f ef       	ldi	r24, 0xFF	; 255
     f1c:	df 91       	pop	r29
     f1e:	cf 91       	pop	r28
     f20:	0f 91       	pop	r16
     f22:	ff 90       	pop	r15
     f24:	ef 90       	pop	r14
     f26:	df 90       	pop	r13
     f28:	cf 90       	pop	r12
     f2a:	bf 90       	pop	r11
     f2c:	af 90       	pop	r10
     f2e:	9f 90       	pop	r9
     f30:	8f 90       	pop	r8
     f32:	7f 90       	pop	r7
     f34:	6f 90       	pop	r6
     f36:	5f 90       	pop	r5
     f38:	4f 90       	pop	r4
     f3a:	08 95       	ret

00000f3c <vTaskStartScheduler>:
     f3c:	ef 92       	push	r14
     f3e:	ff 92       	push	r15
     f40:	0f 93       	push	r16
     f42:	8c eb       	ldi	r24, 0xBC	; 188
     f44:	e8 2e       	mov	r14, r24
     f46:	85 e0       	ldi	r24, 0x05	; 5
     f48:	f8 2e       	mov	r15, r24
     f4a:	00 e0       	ldi	r16, 0x00	; 0
     f4c:	20 e0       	ldi	r18, 0x00	; 0
     f4e:	30 e0       	ldi	r19, 0x00	; 0
     f50:	45 e5       	ldi	r20, 0x55	; 85
     f52:	50 e0       	ldi	r21, 0x00	; 0
     f54:	67 e1       	ldi	r22, 0x17	; 23
     f56:	71 e0       	ldi	r23, 0x01	; 1
     f58:	8b e8       	ldi	r24, 0x8B	; 139
     f5a:	96 e0       	ldi	r25, 0x06	; 6
     f5c:	04 df       	rcall	.-504    	; 0xd66 <xTaskCreate>
     f5e:	81 30       	cpi	r24, 0x01	; 1
     f60:	89 f4       	brne	.+34     	; 0xf84 <vTaskStartScheduler+0x48>
     f62:	f8 94       	cli
     f64:	2f ef       	ldi	r18, 0xFF	; 255
     f66:	3f ef       	ldi	r19, 0xFF	; 255
     f68:	30 93 bf 05 	sts	0x05BF, r19	; 0x8005bf <xNextTaskUnblockTime+0x1>
     f6c:	20 93 be 05 	sts	0x05BE, r18	; 0x8005be <xNextTaskUnblockTime>
     f70:	80 93 c4 05 	sts	0x05C4, r24	; 0x8005c4 <xSchedulerRunning>
     f74:	10 92 c7 05 	sts	0x05C7, r1	; 0x8005c7 <xTickCount+0x1>
     f78:	10 92 c6 05 	sts	0x05C6, r1	; 0x8005c6 <xTickCount>
     f7c:	0f 91       	pop	r16
     f7e:	ff 90       	pop	r15
     f80:	ef 90       	pop	r14
     f82:	f1 cc       	rjmp	.-1566   	; 0x966 <xPortStartScheduler>
     f84:	0f 91       	pop	r16
     f86:	ff 90       	pop	r15
     f88:	ef 90       	pop	r14
     f8a:	08 95       	ret

00000f8c <vTaskSuspendAll>:
     f8c:	80 91 bb 05 	lds	r24, 0x05BB	; 0x8005bb <uxSchedulerSuspended>
     f90:	8f 5f       	subi	r24, 0xFF	; 255
     f92:	80 93 bb 05 	sts	0x05BB, r24	; 0x8005bb <uxSchedulerSuspended>
     f96:	08 95       	ret

00000f98 <xTaskIncrementTick>:
     f98:	cf 92       	push	r12
     f9a:	df 92       	push	r13
     f9c:	ef 92       	push	r14
     f9e:	ff 92       	push	r15
     fa0:	0f 93       	push	r16
     fa2:	1f 93       	push	r17
     fa4:	cf 93       	push	r28
     fa6:	df 93       	push	r29
     fa8:	80 91 bb 05 	lds	r24, 0x05BB	; 0x8005bb <uxSchedulerSuspended>
     fac:	81 11       	cpse	r24, r1
     fae:	88 c0       	rjmp	.+272    	; 0x10c0 <xTaskIncrementTick+0x128>
     fb0:	00 91 c6 05 	lds	r16, 0x05C6	; 0x8005c6 <xTickCount>
     fb4:	10 91 c7 05 	lds	r17, 0x05C7	; 0x8005c7 <xTickCount+0x1>
     fb8:	0f 5f       	subi	r16, 0xFF	; 255
     fba:	1f 4f       	sbci	r17, 0xFF	; 255
     fbc:	10 93 c7 05 	sts	0x05C7, r17	; 0x8005c7 <xTickCount+0x1>
     fc0:	00 93 c6 05 	sts	0x05C6, r16	; 0x8005c6 <xTickCount>
     fc4:	01 15       	cp	r16, r1
     fc6:	11 05       	cpc	r17, r1
     fc8:	b1 f4       	brne	.+44     	; 0xff6 <xTaskIncrementTick+0x5e>
     fca:	80 91 de 05 	lds	r24, 0x05DE	; 0x8005de <pxDelayedTaskList>
     fce:	90 91 df 05 	lds	r25, 0x05DF	; 0x8005df <pxDelayedTaskList+0x1>
     fd2:	20 91 dc 05 	lds	r18, 0x05DC	; 0x8005dc <pxOverflowDelayedTaskList>
     fd6:	30 91 dd 05 	lds	r19, 0x05DD	; 0x8005dd <pxOverflowDelayedTaskList+0x1>
     fda:	30 93 df 05 	sts	0x05DF, r19	; 0x8005df <pxDelayedTaskList+0x1>
     fde:	20 93 de 05 	sts	0x05DE, r18	; 0x8005de <pxDelayedTaskList>
     fe2:	90 93 dd 05 	sts	0x05DD, r25	; 0x8005dd <pxOverflowDelayedTaskList+0x1>
     fe6:	80 93 dc 05 	sts	0x05DC, r24	; 0x8005dc <pxOverflowDelayedTaskList>
     fea:	80 91 c1 05 	lds	r24, 0x05C1	; 0x8005c1 <xNumOfOverflows>
     fee:	8f 5f       	subi	r24, 0xFF	; 255
     ff0:	80 93 c1 05 	sts	0x05C1, r24	; 0x8005c1 <xNumOfOverflows>
     ff4:	35 de       	rcall	.-918    	; 0xc60 <prvResetNextTaskUnblockTime>
     ff6:	80 91 be 05 	lds	r24, 0x05BE	; 0x8005be <xNextTaskUnblockTime>
     ffa:	90 91 bf 05 	lds	r25, 0x05BF	; 0x8005bf <xNextTaskUnblockTime+0x1>
     ffe:	c0 e0       	ldi	r28, 0x00	; 0
    1000:	08 17       	cp	r16, r24
    1002:	19 07       	cpc	r17, r25
    1004:	08 f4       	brcc	.+2      	; 0x1008 <xTaskIncrementTick+0x70>
    1006:	4c c0       	rjmp	.+152    	; 0x10a0 <xTaskIncrementTick+0x108>
    1008:	d9 e0       	ldi	r29, 0x09	; 9
    100a:	e0 91 de 05 	lds	r30, 0x05DE	; 0x8005de <pxDelayedTaskList>
    100e:	f0 91 df 05 	lds	r31, 0x05DF	; 0x8005df <pxDelayedTaskList+0x1>
    1012:	80 81       	ld	r24, Z
    1014:	81 11       	cpse	r24, r1
    1016:	03 c0       	rjmp	.+6      	; 0x101e <xTaskIncrementTick+0x86>
    1018:	8f ef       	ldi	r24, 0xFF	; 255
    101a:	9f ef       	ldi	r25, 0xFF	; 255
    101c:	11 c0       	rjmp	.+34     	; 0x1040 <xTaskIncrementTick+0xa8>
    101e:	e0 91 de 05 	lds	r30, 0x05DE	; 0x8005de <pxDelayedTaskList>
    1022:	f0 91 df 05 	lds	r31, 0x05DF	; 0x8005df <pxDelayedTaskList+0x1>
    1026:	05 80       	ldd	r0, Z+5	; 0x05
    1028:	f6 81       	ldd	r31, Z+6	; 0x06
    102a:	e0 2d       	mov	r30, r0
    102c:	e6 80       	ldd	r14, Z+6	; 0x06
    102e:	f7 80       	ldd	r15, Z+7	; 0x07
    1030:	d7 01       	movw	r26, r14
    1032:	12 96       	adiw	r26, 0x02	; 2
    1034:	8d 91       	ld	r24, X+
    1036:	9c 91       	ld	r25, X
    1038:	13 97       	sbiw	r26, 0x03	; 3
    103a:	08 17       	cp	r16, r24
    103c:	19 07       	cpc	r17, r25
    103e:	28 f4       	brcc	.+10     	; 0x104a <xTaskIncrementTick+0xb2>
    1040:	90 93 bf 05 	sts	0x05BF, r25	; 0x8005bf <xNextTaskUnblockTime+0x1>
    1044:	80 93 be 05 	sts	0x05BE, r24	; 0x8005be <xNextTaskUnblockTime>
    1048:	2b c0       	rjmp	.+86     	; 0x10a0 <xTaskIncrementTick+0x108>
    104a:	67 01       	movw	r12, r14
    104c:	b2 e0       	ldi	r27, 0x02	; 2
    104e:	cb 0e       	add	r12, r27
    1050:	d1 1c       	adc	r13, r1
    1052:	c6 01       	movw	r24, r12
    1054:	e1 dd       	rcall	.-1086   	; 0xc18 <uxListRemove>
    1056:	f7 01       	movw	r30, r14
    1058:	84 89       	ldd	r24, Z+20	; 0x14
    105a:	95 89       	ldd	r25, Z+21	; 0x15
    105c:	89 2b       	or	r24, r25
    105e:	19 f0       	breq	.+6      	; 0x1066 <xTaskIncrementTick+0xce>
    1060:	c7 01       	movw	r24, r14
    1062:	0c 96       	adiw	r24, 0x0c	; 12
    1064:	d9 dd       	rcall	.-1102   	; 0xc18 <uxListRemove>
    1066:	d7 01       	movw	r26, r14
    1068:	56 96       	adiw	r26, 0x16	; 22
    106a:	8c 91       	ld	r24, X
    106c:	90 91 c5 05 	lds	r25, 0x05C5	; 0x8005c5 <uxTopReadyPriority>
    1070:	98 17       	cp	r25, r24
    1072:	10 f4       	brcc	.+4      	; 0x1078 <xTaskIncrementTick+0xe0>
    1074:	80 93 c5 05 	sts	0x05C5, r24	; 0x8005c5 <uxTopReadyPriority>
    1078:	d8 9f       	mul	r29, r24
    107a:	c0 01       	movw	r24, r0
    107c:	11 24       	eor	r1, r1
    107e:	b6 01       	movw	r22, r12
    1080:	8e 50       	subi	r24, 0x0E	; 14
    1082:	9a 4f       	sbci	r25, 0xFA	; 250
    1084:	70 dd       	rcall	.-1312   	; 0xb66 <vListInsertEnd>
    1086:	e0 91 16 06 	lds	r30, 0x0616	; 0x800616 <pxCurrentTCB>
    108a:	f0 91 17 06 	lds	r31, 0x0617	; 0x800617 <pxCurrentTCB+0x1>
    108e:	d7 01       	movw	r26, r14
    1090:	56 96       	adiw	r26, 0x16	; 22
    1092:	9c 91       	ld	r25, X
    1094:	86 89       	ldd	r24, Z+22	; 0x16
    1096:	98 17       	cp	r25, r24
    1098:	08 f4       	brcc	.+2      	; 0x109c <xTaskIncrementTick+0x104>
    109a:	b7 cf       	rjmp	.-146    	; 0x100a <xTaskIncrementTick+0x72>
    109c:	c1 e0       	ldi	r28, 0x01	; 1
    109e:	b5 cf       	rjmp	.-150    	; 0x100a <xTaskIncrementTick+0x72>
    10a0:	e0 91 16 06 	lds	r30, 0x0616	; 0x800616 <pxCurrentTCB>
    10a4:	f0 91 17 06 	lds	r31, 0x0617	; 0x800617 <pxCurrentTCB+0x1>
    10a8:	e6 89       	ldd	r30, Z+22	; 0x16
    10aa:	b9 e0       	ldi	r27, 0x09	; 9
    10ac:	eb 9f       	mul	r30, r27
    10ae:	f0 01       	movw	r30, r0
    10b0:	11 24       	eor	r1, r1
    10b2:	ee 50       	subi	r30, 0x0E	; 14
    10b4:	fa 4f       	sbci	r31, 0xFA	; 250
    10b6:	80 81       	ld	r24, Z
    10b8:	82 30       	cpi	r24, 0x02	; 2
    10ba:	40 f0       	brcs	.+16     	; 0x10cc <xTaskIncrementTick+0x134>
    10bc:	c1 e0       	ldi	r28, 0x01	; 1
    10be:	06 c0       	rjmp	.+12     	; 0x10cc <xTaskIncrementTick+0x134>
    10c0:	80 91 c3 05 	lds	r24, 0x05C3	; 0x8005c3 <uxPendedTicks>
    10c4:	8f 5f       	subi	r24, 0xFF	; 255
    10c6:	80 93 c3 05 	sts	0x05C3, r24	; 0x8005c3 <uxPendedTicks>
    10ca:	c0 e0       	ldi	r28, 0x00	; 0
    10cc:	80 91 c2 05 	lds	r24, 0x05C2	; 0x8005c2 <xYieldPending>
    10d0:	81 11       	cpse	r24, r1
    10d2:	c1 e0       	ldi	r28, 0x01	; 1
    10d4:	8c 2f       	mov	r24, r28
    10d6:	df 91       	pop	r29
    10d8:	cf 91       	pop	r28
    10da:	1f 91       	pop	r17
    10dc:	0f 91       	pop	r16
    10de:	ff 90       	pop	r15
    10e0:	ef 90       	pop	r14
    10e2:	df 90       	pop	r13
    10e4:	cf 90       	pop	r12
    10e6:	08 95       	ret

000010e8 <xTaskResumeAll>:
    10e8:	ef 92       	push	r14
    10ea:	ff 92       	push	r15
    10ec:	0f 93       	push	r16
    10ee:	1f 93       	push	r17
    10f0:	cf 93       	push	r28
    10f2:	df 93       	push	r29
    10f4:	0f b6       	in	r0, 0x3f	; 63
    10f6:	f8 94       	cli
    10f8:	0f 92       	push	r0
    10fa:	80 91 bb 05 	lds	r24, 0x05BB	; 0x8005bb <uxSchedulerSuspended>
    10fe:	81 50       	subi	r24, 0x01	; 1
    1100:	80 93 bb 05 	sts	0x05BB, r24	; 0x8005bb <uxSchedulerSuspended>
    1104:	80 91 bb 05 	lds	r24, 0x05BB	; 0x8005bb <uxSchedulerSuspended>
    1108:	88 23       	and	r24, r24
    110a:	11 f0       	breq	.+4      	; 0x1110 <xTaskResumeAll+0x28>
    110c:	80 e0       	ldi	r24, 0x00	; 0
    110e:	4c c0       	rjmp	.+152    	; 0x11a8 <xTaskResumeAll+0xc0>
    1110:	80 91 c8 05 	lds	r24, 0x05C8	; 0x8005c8 <uxCurrentNumberOfTasks>
    1114:	88 23       	and	r24, r24
    1116:	d1 f3       	breq	.-12     	; 0x110c <xTaskResumeAll+0x24>
    1118:	c0 e0       	ldi	r28, 0x00	; 0
    111a:	d0 e0       	ldi	r29, 0x00	; 0
    111c:	89 e0       	ldi	r24, 0x09	; 9
    111e:	f8 2e       	mov	r15, r24
    1120:	ee 24       	eor	r14, r14
    1122:	e3 94       	inc	r14
    1124:	80 91 d3 05 	lds	r24, 0x05D3	; 0x8005d3 <xPendingReadyList>
    1128:	88 23       	and	r24, r24
    112a:	39 f1       	breq	.+78     	; 0x117a <xTaskResumeAll+0x92>
    112c:	e0 91 d8 05 	lds	r30, 0x05D8	; 0x8005d8 <xPendingReadyList+0x5>
    1130:	f0 91 d9 05 	lds	r31, 0x05D9	; 0x8005d9 <xPendingReadyList+0x6>
    1134:	c6 81       	ldd	r28, Z+6	; 0x06
    1136:	d7 81       	ldd	r29, Z+7	; 0x07
    1138:	ce 01       	movw	r24, r28
    113a:	0c 96       	adiw	r24, 0x0c	; 12
    113c:	6d dd       	rcall	.-1318   	; 0xc18 <uxListRemove>
    113e:	8e 01       	movw	r16, r28
    1140:	0e 5f       	subi	r16, 0xFE	; 254
    1142:	1f 4f       	sbci	r17, 0xFF	; 255
    1144:	c8 01       	movw	r24, r16
    1146:	68 dd       	rcall	.-1328   	; 0xc18 <uxListRemove>
    1148:	8e 89       	ldd	r24, Y+22	; 0x16
    114a:	90 91 c5 05 	lds	r25, 0x05C5	; 0x8005c5 <uxTopReadyPriority>
    114e:	98 17       	cp	r25, r24
    1150:	10 f4       	brcc	.+4      	; 0x1156 <xTaskResumeAll+0x6e>
    1152:	80 93 c5 05 	sts	0x05C5, r24	; 0x8005c5 <uxTopReadyPriority>
    1156:	f8 9e       	mul	r15, r24
    1158:	c0 01       	movw	r24, r0
    115a:	11 24       	eor	r1, r1
    115c:	b8 01       	movw	r22, r16
    115e:	8e 50       	subi	r24, 0x0E	; 14
    1160:	9a 4f       	sbci	r25, 0xFA	; 250
    1162:	01 dd       	rcall	.-1534   	; 0xb66 <vListInsertEnd>
    1164:	e0 91 16 06 	lds	r30, 0x0616	; 0x800616 <pxCurrentTCB>
    1168:	f0 91 17 06 	lds	r31, 0x0617	; 0x800617 <pxCurrentTCB+0x1>
    116c:	9e 89       	ldd	r25, Y+22	; 0x16
    116e:	86 89       	ldd	r24, Z+22	; 0x16
    1170:	98 17       	cp	r25, r24
    1172:	c0 f2       	brcs	.-80     	; 0x1124 <xTaskResumeAll+0x3c>
    1174:	e0 92 c2 05 	sts	0x05C2, r14	; 0x8005c2 <xYieldPending>
    1178:	d5 cf       	rjmp	.-86     	; 0x1124 <xTaskResumeAll+0x3c>
    117a:	cd 2b       	or	r28, r29
    117c:	09 f0       	breq	.+2      	; 0x1180 <xTaskResumeAll+0x98>
    117e:	70 dd       	rcall	.-1312   	; 0xc60 <prvResetNextTaskUnblockTime>
    1180:	c0 91 c3 05 	lds	r28, 0x05C3	; 0x8005c3 <uxPendedTicks>
    1184:	cc 23       	and	r28, r28
    1186:	49 f0       	breq	.+18     	; 0x119a <xTaskResumeAll+0xb2>
    1188:	d1 e0       	ldi	r29, 0x01	; 1
    118a:	06 df       	rcall	.-500    	; 0xf98 <xTaskIncrementTick>
    118c:	81 11       	cpse	r24, r1
    118e:	d0 93 c2 05 	sts	0x05C2, r29	; 0x8005c2 <xYieldPending>
    1192:	c1 50       	subi	r28, 0x01	; 1
    1194:	d1 f7       	brne	.-12     	; 0x118a <xTaskResumeAll+0xa2>
    1196:	10 92 c3 05 	sts	0x05C3, r1	; 0x8005c3 <uxPendedTicks>
    119a:	80 91 c2 05 	lds	r24, 0x05C2	; 0x8005c2 <xYieldPending>
    119e:	88 23       	and	r24, r24
    11a0:	09 f4       	brne	.+2      	; 0x11a4 <xTaskResumeAll+0xbc>
    11a2:	b4 cf       	rjmp	.-152    	; 0x110c <xTaskResumeAll+0x24>
    11a4:	1a dc       	rcall	.-1996   	; 0x9da <vPortYield>
    11a6:	81 e0       	ldi	r24, 0x01	; 1
    11a8:	0f 90       	pop	r0
    11aa:	0f be       	out	0x3f, r0	; 63
    11ac:	df 91       	pop	r29
    11ae:	cf 91       	pop	r28
    11b0:	1f 91       	pop	r17
    11b2:	0f 91       	pop	r16
    11b4:	ff 90       	pop	r15
    11b6:	ef 90       	pop	r14
    11b8:	08 95       	ret

000011ba <vTaskDelay>:
    11ba:	cf 93       	push	r28
    11bc:	df 93       	push	r29
    11be:	ec 01       	movw	r28, r24
    11c0:	89 2b       	or	r24, r25
    11c2:	11 f4       	brne	.+4      	; 0x11c8 <vTaskDelay+0xe>
    11c4:	0a dc       	rcall	.-2028   	; 0x9da <vPortYield>
    11c6:	06 c0       	rjmp	.+12     	; 0x11d4 <vTaskDelay+0x1a>
    11c8:	e1 de       	rcall	.-574    	; 0xf8c <vTaskSuspendAll>
    11ca:	ce 01       	movw	r24, r28
    11cc:	64 dd       	rcall	.-1336   	; 0xc96 <prvAddCurrentTaskToDelayedList.isra.2>
    11ce:	8c df       	rcall	.-232    	; 0x10e8 <xTaskResumeAll>
    11d0:	88 23       	and	r24, r24
    11d2:	c1 f3       	breq	.-16     	; 0x11c4 <vTaskDelay+0xa>
    11d4:	df 91       	pop	r29
    11d6:	cf 91       	pop	r28
    11d8:	08 95       	ret

000011da <vTaskSwitchContext>:
    11da:	80 91 bb 05 	lds	r24, 0x05BB	; 0x8005bb <uxSchedulerSuspended>
    11de:	88 23       	and	r24, r24
    11e0:	21 f0       	breq	.+8      	; 0x11ea <vTaskSwitchContext+0x10>
    11e2:	81 e0       	ldi	r24, 0x01	; 1
    11e4:	80 93 c2 05 	sts	0x05C2, r24	; 0x8005c2 <xYieldPending>
    11e8:	08 95       	ret
    11ea:	10 92 c2 05 	sts	0x05C2, r1	; 0x8005c2 <xYieldPending>
    11ee:	80 91 c5 05 	lds	r24, 0x05C5	; 0x8005c5 <uxTopReadyPriority>
    11f2:	69 e0       	ldi	r22, 0x09	; 9
    11f4:	48 2f       	mov	r20, r24
    11f6:	50 e0       	ldi	r21, 0x00	; 0
    11f8:	64 9f       	mul	r22, r20
    11fa:	90 01       	movw	r18, r0
    11fc:	65 9f       	mul	r22, r21
    11fe:	30 0d       	add	r19, r0
    1200:	11 24       	eor	r1, r1
    1202:	f9 01       	movw	r30, r18
    1204:	ee 50       	subi	r30, 0x0E	; 14
    1206:	fa 4f       	sbci	r31, 0xFA	; 250
    1208:	90 81       	ld	r25, Z
    120a:	91 11       	cpse	r25, r1
    120c:	02 c0       	rjmp	.+4      	; 0x1212 <vTaskSwitchContext+0x38>
    120e:	81 50       	subi	r24, 0x01	; 1
    1210:	f1 cf       	rjmp	.-30     	; 0x11f4 <vTaskSwitchContext+0x1a>
    1212:	a1 81       	ldd	r26, Z+1	; 0x01
    1214:	b2 81       	ldd	r27, Z+2	; 0x02
    1216:	12 96       	adiw	r26, 0x02	; 2
    1218:	0d 90       	ld	r0, X+
    121a:	bc 91       	ld	r27, X
    121c:	a0 2d       	mov	r26, r0
    121e:	b2 83       	std	Z+2, r27	; 0x02
    1220:	a1 83       	std	Z+1, r26	; 0x01
    1222:	2b 50       	subi	r18, 0x0B	; 11
    1224:	3a 4f       	sbci	r19, 0xFA	; 250
    1226:	a2 17       	cp	r26, r18
    1228:	b3 07       	cpc	r27, r19
    122a:	31 f4       	brne	.+12     	; 0x1238 <vTaskSwitchContext+0x5e>
    122c:	12 96       	adiw	r26, 0x02	; 2
    122e:	2d 91       	ld	r18, X+
    1230:	3c 91       	ld	r19, X
    1232:	13 97       	sbiw	r26, 0x03	; 3
    1234:	32 83       	std	Z+2, r19	; 0x02
    1236:	21 83       	std	Z+1, r18	; 0x01
    1238:	99 e0       	ldi	r25, 0x09	; 9
    123a:	94 9f       	mul	r25, r20
    123c:	f0 01       	movw	r30, r0
    123e:	95 9f       	mul	r25, r21
    1240:	f0 0d       	add	r31, r0
    1242:	11 24       	eor	r1, r1
    1244:	ee 50       	subi	r30, 0x0E	; 14
    1246:	fa 4f       	sbci	r31, 0xFA	; 250
    1248:	01 80       	ldd	r0, Z+1	; 0x01
    124a:	f2 81       	ldd	r31, Z+2	; 0x02
    124c:	e0 2d       	mov	r30, r0
    124e:	26 81       	ldd	r18, Z+6	; 0x06
    1250:	37 81       	ldd	r19, Z+7	; 0x07
    1252:	30 93 17 06 	sts	0x0617, r19	; 0x800617 <pxCurrentTCB+0x1>
    1256:	20 93 16 06 	sts	0x0616, r18	; 0x800616 <pxCurrentTCB>
    125a:	80 93 c5 05 	sts	0x05C5, r24	; 0x8005c5 <uxTopReadyPriority>
    125e:	08 95       	ret

00001260 <_Z9TaskBlinkPv>:
    1260:	61 e0       	ldi	r22, 0x01	; 1
    1262:	8d e0       	ldi	r24, 0x0D	; 13
    1264:	79 da       	rcall	.-2830   	; 0x758 <pinMode>
    1266:	61 e0       	ldi	r22, 0x01	; 1
    1268:	8d e0       	ldi	r24, 0x0D	; 13
    126a:	b2 da       	rcall	.-2716   	; 0x7d0 <digitalWrite>
    126c:	88 ee       	ldi	r24, 0xE8	; 232
    126e:	93 e0       	ldi	r25, 0x03	; 3
    1270:	a4 df       	rcall	.-184    	; 0x11ba <vTaskDelay>
    1272:	60 e0       	ldi	r22, 0x00	; 0
    1274:	8d e0       	ldi	r24, 0x0D	; 13
    1276:	ac da       	rcall	.-2728   	; 0x7d0 <digitalWrite>
    1278:	88 ee       	ldi	r24, 0xE8	; 232
    127a:	93 e0       	ldi	r25, 0x03	; 3
    127c:	9e df       	rcall	.-196    	; 0x11ba <vTaskDelay>
    127e:	f3 cf       	rjmp	.-26     	; 0x1266 <_Z9TaskBlinkPv+0x6>

00001280 <setup>:
    1280:	ef 92       	push	r14
    1282:	ff 92       	push	r15
    1284:	0f 93       	push	r16
    1286:	e1 2c       	mov	r14, r1
    1288:	f1 2c       	mov	r15, r1
    128a:	03 e0       	ldi	r16, 0x03	; 3
    128c:	20 e0       	ldi	r18, 0x00	; 0
    128e:	30 e0       	ldi	r19, 0x00	; 0
    1290:	40 e0       	ldi	r20, 0x00	; 0
    1292:	51 e0       	ldi	r21, 0x01	; 1
    1294:	6c e1       	ldi	r22, 0x1C	; 28
    1296:	71 e0       	ldi	r23, 0x01	; 1
    1298:	80 e3       	ldi	r24, 0x30	; 48
    129a:	99 e0       	ldi	r25, 0x09	; 9
    129c:	64 dd       	rcall	.-1336   	; 0xd66 <xTaskCreate>
    129e:	0f 91       	pop	r16
    12a0:	ff 90       	pop	r15
    12a2:	ef 90       	pop	r14
    12a4:	4b ce       	rjmp	.-874    	; 0xf3c <vTaskStartScheduler>

000012a6 <loop>:
    12a6:	08 95       	ret

000012a8 <__tablejump2__>:
    12a8:	ee 0f       	add	r30, r30
    12aa:	ff 1f       	adc	r31, r31
    12ac:	05 90       	lpm	r0, Z+
    12ae:	f4 91       	lpm	r31, Z
    12b0:	e0 2d       	mov	r30, r0
    12b2:	09 94       	ijmp

000012b4 <_exit>:
    12b4:	f8 94       	cli

000012b6 <__stop_program>:
    12b6:	ff cf       	rjmp	.-2      	; 0x12b6 <__stop_program>
